(dp0
(I670
I-1
tp1
(dp2
(I0
F0.8
tp3
(dp4
S'c'
p5
F0.0958015441545982
sS'b'
p6
F0.4194385695058643
sS'other'
p7
F0.005687146075625647
ss(F1.6
F2.4
tp8
(dp9
g5
F0.05086705202312139
sg6
F0.36044880785413747
sg7
F0.0011750280984980075
ss(F0.8
F1.6
tp10
(dp11
g5
F0.0750056141926791
sg6
F0.3950270703829958
sg7
F0.0031658989544490752
sss(I210
I260
tp12
(dp13
(I0
F0.8
tp14
(dp15
g5
F0.1046763736847699
sg6
F0.3848067463106114
sg7
F0.0036507501519833434
ss(F1.6
F2.4
tp16
(dp17
g5
F0.08404302342714012
sg6
F0.3725769669327252
sg7
F0.004155555073752069
ss(F0.8
F1.6
tp18
(dp19
g5
F0.09666971063295474
sg6
F0.38824379667549985
sg7
F0.0029102701354314993
sss(I30
I40
tp20
(dp21
(I0
F0.8
tp22
(dp23
g5
F0.1309639994297808
sg6
F0.4470397268132983
sg7
F0.008344303554856151
ss(F1.6
F2.4
tp24
(dp25
g5
F0.09670688175915432
sg6
F0.38588263114334137
sg7
F0.008373351041000267
ss(F0.8
F1.6
tp26
(dp27
g5
F0.11693919980767604
sg6
F0.42413898945671186
sg7
F0.007371061956592459
sss(I500
I670
tp28
(dp29
(I0
F0.8
tp30
(dp31
g5
F0.0993053183008769
sg6
F0.41332676303109944
sg7
F0.004624385033661315
ss(F1.6
F2.4
tp32
(dp33
g5
F0.05947019867549669
sg6
F0.335016835016835
sg7
F0.0024112773587238777
ss(F0.8
F1.6
tp34
(dp35
g5
F0.08616274266831887
sg6
F0.3899005807658234
sg7
F0.003134550924496885
sss(I80
I100
tp36
(dp37
(I0
F0.8
tp38
(dp39
g5
F0.10794494493644553
sg6
F0.38196285034445004
sg7
F0.004086836742825267
ss(F1.6
F2.4
tp40
(dp41
g5
F0.0994332364255719
sg6
F0.4020271746253659
sg7
F0.00581905827666351
ss(F0.8
F1.6
tp42
(dp43
g5
F0.1062788204445937
sg6
F0.3798216994205777
sg7
F0.004136226693841876
sss(I20
I30
tp44
(dp45
(I0
F0.8
tp46
(dp47
g5
F0.11217381818051753
sg6
F0.4027550665258196
sg7
F0.008108416602985133
ss(F1.6
F2.4
tp48
(dp49
g5
F0.07208832637673354
sg6
F0.31421908391364056
sg7
F0.00627589681372801
ss(F0.8
F1.6
tp50
(dp51
g5
F0.09451712773394587
sg6
F0.3715088332034277
sg7
F0.006757524376951594
sss(I260
I320
tp52
(dp53
(I0
F0.8
tp54
(dp55
g5
F0.10780192802826179
sg6
F0.3915302351323847
sg7
F0.00393457296756312
ss(F1.6
F2.4
tp56
(dp57
g5
F0.08287387418239102
sg6
F0.35879734762467075
sg7
F0.0045448340653781606
ss(F0.8
F1.6
tp58
(dp59
g5
F0.09956113656020758
sg6
F0.3876960696606429
sg7
F0.0031858346773277605
sss(I70
I80
tp60
(dp61
(I0
F0.8
tp62
(dp63
g5
F0.11295595117706544
sg6
F0.38504165682097097
sg7
F0.004410175673627443
ss(F1.6
F2.4
tp64
(dp65
g5
F0.09670378619153674
sg6
F0.3903525046382189
sg7
F0.005183389856325572
ss(F0.8
F1.6
tp66
(dp67
g5
F0.10422235098409376
sg6
F0.3762280634531382
sg7
F0.003909795018433166
sss(I320
I400
tp68
(dp69
(I0
F0.8
tp70
(dp71
g5
F0.10701550887141814
sg6
F0.3963235636736406
sg7
F0.004352668329593139
ss(F1.6
F2.4
tp72
(dp73
g5
F0.08888284860016309
sg6
F0.3670561047631275
sg7
F0.00515956745351444
ss(F0.8
F1.6
tp74
(dp75
g5
F0.09989135917432973
sg6
F0.39301071065592996
sg7
F0.0035171812749003983
sss(I400
I500
tp76
(dp77
(I0
F0.8
tp78
(dp79
g5
F0.10443919318085915
sg6
F0.4009788299567494
sg7
F0.004388519705642861
ss(F1.6
F2.4
tp80
(dp81
g5
F0.07517999242137173
sg6
F0.3497991018671709
sg7
F0.003714209258763714
ss(F0.8
F1.6
tp82
(dp83
g5
F0.09255237983449734
sg6
F0.3886039886039886
sg7
F0.0034255081009073405
sss(I40
I50
tp84
(dp85
(I0
F0.8
tp86
(dp87
g5
F0.11410688692453627
sg6
F0.4185462699144639
sg7
F0.005631749501310731
ss(F1.6
F2.4
tp88
(dp89
g5
F0.10459798786064688
sg6
F0.3975790839662178
sg7
F0.008357435438168925
ss(F0.8
F1.6
tp90
(dp91
g5
F0.10981487714574217
sg6
F0.4082425906906276
sg7
F0.005806368608816205
sss(I100
I120
tp92
(dp93
(I0
F0.8
tp94
(dp95
g5
F0.1070261735592397
sg6
F0.3774658760532843
sg7
F0.003452847908955306
ss(F1.6
F2.4
tp96
(dp97
g5
F0.09265571738456771
sg6
F0.41560844872694785
sg7
F0.004984820113803697
ss(F0.8
F1.6
tp98
(dp99
g5
F0.10584812231177938
sg6
F0.38390499127979405
sg7
F0.003445277795821695
sss(I160
I210
tp100
(dp101
(I0
F0.8
tp102
(dp103
g5
F0.10080004460178965
sg6
F0.38396712966052415
sg7
F0.0031470579475622712
ss(F1.6
F2.4
tp104
(dp105
g5
F0.08702962981834858
sg6
F0.3923950505678287
sg7
F0.004038883890020875
ss(F0.8
F1.6
tp106
(dp107
g5
F0.09930587924062433
sg6
F0.39185070317095344
sg7
F0.0027497226366731704
sss(I120
I160
tp108
(dp109
(I0
F0.8
tp110
(dp111
g5
F0.1059991375744722
sg6
F0.38707996159648883
sg7
F0.003621659834780477
ss(F1.6
F2.4
tp112
(dp113
g5
F0.09924018029620091
sg6
F0.4261153105083741
sg7
F0.005758594996838649
ss(F0.8
F1.6
tp114
(dp115
g5
F0.10876382035105253
sg6
F0.39533335145272197
sg7
F0.003566753553304871
sss(I60
I70
tp116
(dp117
(I0
F0.8
tp118
(dp119
g5
F0.10983003420043527
sg6
F0.39096806243104454
sg7
F0.0044750649530670775
ss(F1.6
F2.4
tp120
(dp121
g5
F0.09708147547628698
sg6
F0.39257496857604596
sg7
F0.006647059645397007
ss(F0.8
F1.6
tp122
(dp123
g5
F0.10380049819785969
sg6
F0.3834066482245703
sg7
F0.004313554970649323
sss(I50
I60
tp124
(dp125
(I0
F0.8
tp126
(dp127
g5
F0.11219553542777916
sg6
F0.4071639704582011
sg7
F0.005098227120268328
ss(F1.6
F2.4
tp128
(dp129
g5
F0.09492375895162469
sg6
F0.3892349464941703
sg7
F0.005942715351754013
ss(F0.8
F1.6
tp130
(dp131
g5
F0.10388029220014139
sg6
F0.39343913612565445
sg7
F0.004726389806013265
sss.