(dp0
I225
(dp1
I195
F0.11786319768323977
sI205
F0.10687441433897561
sI175
F0.14430657307311726
sI215
F0.10032639801319146
sI185
F0.13066742014917931
sI218
F0.09940278616755616
sI220
F0.0997645712514677
sI222
F0.09983995073841488
ssI100
(dp2
I97
F0.046969053405683636
sI70
F0.055611301496511424
sI80
F0.051509609613866955
sI50
F0.06157953052379738
sI90
F0.04788242177537518
sI60
F0.0591496686416035
sI93
F0.046788829779453
sI95
F0.04696473110776599
ssI200
(dp3
I160
F0.12028239337097749
sI193
F0.09133138099088664
sI195
F0.09067526426161102
sI197
F0.09079557050715545
sI170
F0.10903459493260823
sI180
F0.09833960152923259
sI150
F0.1329984927492815
sI190
F0.09186067943330666
ssI300
(dp4
I290
F0.12182846936225303
sI260
F0.15507921936086358
sI293
F0.12085534446446274
sI295
F0.1208845263231679
sI297
F0.12109766594096502
sI270
F0.13957675283238966
sI280
F0.12810869110984696
sI250
F0.17143092757055908
ssI175
(dp5
I165
F0.08265524296871306
sI135
F0.10826841992424784
sI168
F0.08178642499368505
sI170
F0.08103491549173474
sI172
F0.08157992567366787
sI145
F0.09793058803385926
sI155
F0.08905950444525731
sI125
F0.11878412037273246
ssI275
(dp6
I225
F0.16341524761824913
sI265
F0.11541138443851211
sI235
F0.14779975648760632
sI268
F0.11447913851822597
sI270
F0.11427141166833531
sI272
F0.11422279251436021
sI245
F0.13344884426854245
sI255
F0.12214771162139583
ssI150
(dp7
I130
F0.07788365050064473
sI100
F0.10343045499424058
sI140
F0.07229218714587217
sI110
F0.09450798846691852
sI143
F0.07183029953430087
sI145
F0.07122442424759487
sI147
F0.07189513260312956
sI120
F0.0858846502100183
ssI250
(dp8
I230
F0.11507458771430437
sI200
F0.15433148997446727
sI240
F0.10827398375066757
sI210
F0.13865112794159334
sI243
F0.1076081884780544
sI245
F0.10705903012509368
sI247
F0.10751754990480418
sI220
F0.12550955099868555
ssI125
(dp9
I105
F0.06602001374883827
sI75
F0.08474297483623049
sI115
F0.0607801599726175
sI85
F0.0785814163936572
sI118
F0.06015315022874451
sI120
F0.05991200913356255
sI122
F0.06007878135660216
sI95
F0.07268383778507725
ss.