(dp0
S'WJets'
p1
(dp2
(I670
I-1
tp3
(dp4
(I0
F0.8
tp5
(dp6
S'c'
p7
F0.14378414753336644
sS'b'
p8
F0.5580524344569289
sS'other'
p9
F0.031024716151602922
ss(F1.6
F2.4
tp10
(dp11
g7
F0.11862891207153502
sg8
F0.4740740740740741
sg9
F0.033886767883038856
ss(F0.8
F1.6
tp12
(dp13
g7
F0.14698294395872152
sg8
F0.5398729710656316
sg9
F0.03627277345305271
sss(I210
I260
tp14
(dp15
(I0
F0.8
tp16
(dp17
g7
F0.17534104092491098
sg8
F0.6687058823529411
sg9
F0.013126519139720535
ss(F1.6
F2.4
tp18
(dp19
g7
F0.15633642427200262
sg8
F0.5331196581196581
sg9
F0.028266828095310163
ss(F0.8
F1.6
tp20
(dp21
g7
F0.1598992567111002
sg8
F0.6087997054491899
sg9
F0.016763728102232808
sss(I80
I100
tp22
(dp23
(I0
F0.8
tp24
(dp25
g7
F0.18115249920407514
sg8
F0.7132789317507419
sg9
F0.011165526161601646
ss(F1.6
F2.4
tp26
(dp27
g7
F0.16332510795805058
sg8
F0.6109350237717908
sg9
F0.022237441645934084
ss(F0.8
F1.6
tp28
(dp29
g7
F0.17826964779780155
sg8
F0.6878039655817434
sg9
F0.014563252110399329
sss(I500
I670
tp30
(dp31
(I0
F0.8
tp32
(dp33
g7
F0.14259758410701806
sg8
F0.5935884814176716
sg9
F0.021904923577971847
ss(F1.6
F2.4
tp34
(dp35
g7
F0.13312532501300053
sg8
F0.4807692307692308
sg9
F0.03367590863883024
ss(F0.8
F1.6
tp36
(dp37
g7
F0.14677709758732446
sg8
F0.552610349199032
sg9
F0.027295309066590237
sss(I400
I500
tp38
(dp39
(I0
F0.8
tp40
(dp41
g7
F0.1476037677259083
sg8
F0.6155339805825243
sg9
F0.017974296755639437
ss(F1.6
F2.4
tp42
(dp43
g7
F0.15348762455801992
sg8
F0.5267588695129285
sg9
F0.035805367427249234
ss(F0.8
F1.6
tp44
(dp45
g7
F0.1497106831332585
sg8
F0.5709663806442538
sg9
F0.025532212558584188
sss(I30
I40
tp46
(dp47
(I0
F0.8
tp48
(dp49
g7
F0.19413635972831228
sg8
F0.6726233766233767
sg9
F0.020612745016762777
ss(F1.6
F2.4
tp50
(dp51
g7
F0.15017098192476797
sg8
F0.5573200992555831
sg9
F0.027045440469062907
ss(F0.8
F1.6
tp52
(dp53
g7
F0.17460962442677191
sg8
F0.6311612364243944
sg9
F0.023985848856990514
sss(I260
I320
tp54
(dp55
(I0
F0.8
tp56
(dp57
g7
F0.1687096300645919
sg8
F0.6403775222390974
sg9
F0.014916337616440149
ss(F1.6
F2.4
tp58
(dp59
g7
F0.1564867042707494
sg8
F0.5214163335237008
sg9
F0.03489898559372603
ss(F0.8
F1.6
tp60
(dp61
g7
F0.1596577564030869
sg8
F0.6107104219257122
sg9
F0.019589635396547112
sss(I70
I80
tp62
(dp63
(I0
F0.8
tp64
(dp65
g7
F0.17854052494952408
sg8
F0.6968694885361552
sg9
F0.011953141396218496
ss(F1.6
F2.4
tp66
(dp67
g7
F0.14951724137931036
sg8
F0.6283967391304348
sg9
F0.020744297719087635
ss(F0.8
F1.6
tp68
(dp69
g7
F0.16882045642012647
sg8
F0.6730523627075351
sg9
F0.013546202225447508
sss(I320
I400
tp70
(dp71
(I0
F0.8
tp72
(dp73
g7
F0.16334238168299303
sg8
F0.6257145449596225
sg9
F0.01645177856451415
ss(F1.6
F2.4
tp74
(dp75
g7
F0.16243419015174976
sg8
F0.5536572343833422
sg9
F0.040694623348122703
ss(F0.8
F1.6
tp76
(dp77
g7
F0.16317309483882989
sg8
F0.5890025196383578
sg9
F0.023986870344653452
sss(I50
I60
tp78
(dp79
(I0
F0.8
tp80
(dp81
g7
F0.17970789529386863
sg8
F0.7050325448483886
sg9
F0.012783567973798128
ss(F1.6
F2.4
tp82
(dp83
g7
F0.14185315331977066
sg8
F0.596475372797108
sg9
F0.02105106888361045
ss(F0.8
F1.6
tp84
(dp85
g7
F0.1718551771250122
sg8
F0.6694580134915097
sg9
F0.015856325706594884
sss(I100
I120
tp86
(dp87
(I0
F0.8
tp88
(dp89
g7
F0.17852424985846385
sg8
F0.704647676161919
sg9
F0.010407438667959458
ss(F1.6
F2.4
tp90
(dp91
g7
F0.15860849056603774
sg8
F0.5882352941176471
sg9
F0.021799928289709572
ss(F0.8
F1.6
tp92
(dp93
g7
F0.17332246672099974
sg8
F0.6622667273554848
sg9
F0.013338462278213203
sss(I160
I210
tp94
(dp95
(I0
F0.8
tp96
(dp97
g7
F0.17034688952127086
sg8
F0.6756947241240435
sg9
F0.011380995303382513
ss(F1.6
F2.4
tp98
(dp99
g7
F0.15443763847256614
sg8
F0.5688785409390764
sg9
F0.02694080113434952
ss(F0.8
F1.6
tp100
(dp101
g7
F0.16504905304023923
sg8
F0.6384674329501916
sg9
F0.015221122452930018
sss(I120
I160
tp102
(dp103
(I0
F0.8
tp104
(dp105
g7
F0.19045818841675488
sg8
F0.7026047786917352
sg9
F0.011713276407021618
ss(F1.6
F2.4
tp106
(dp107
g7
F0.16868205691950652
sg8
F0.5858938547486033
sg9
F0.027151486155134262
ss(F0.8
F1.6
tp108
(dp109
g7
F0.17794268999512486
sg8
F0.6745387453874538
sg9
F0.01618899742040049
sss(I60
I70
tp110
(dp111
(I0
F0.8
tp112
(dp113
g7
F0.17459256163811115
sg8
F0.7077303884234577
sg9
F0.010893746387883874
ss(F1.6
F2.4
tp114
(dp115
g7
F0.15016121602947952
sg8
F0.617169373549884
sg9
F0.024024024024024024
ss(F0.8
F1.6
tp116
(dp117
g7
F0.16674635429117857
sg8
F0.6697802197802197
sg9
F0.015671353024635626
sss(I40
I50
tp118
(dp119
(I0
F0.8
tp120
(dp121
g7
F0.17532689027856738
sg8
F0.6919178794178794
sg9
F0.012591342373271447
ss(F1.6
F2.4
tp122
(dp123
g7
F0.16426350014136273
sg8
F0.5995120250958522
sg9
F0.02677639844132615
ss(F0.8
F1.6
tp124
(dp125
g7
F0.159745377387087
sg8
F0.6517739816031537
sg9
F0.017945005421735834
ssssS'TTJets'
p126
(dp127
(I670
I-1
tp128
(dp129
(I0
F0.8
tp130
(dp131
g7
F0.14770562211386315
sg8
F0.49086526413765946
sg9
F0.03198211170023546
ss(F1.6
F2.4
tp132
(dp133
g7
F0.11989741397734559
sg8
F0.4017249205628688
sg9
F0.029418577716006485
ss(F0.8
F1.6
tp134
(dp135
g7
F0.15164814043630073
sg8
F0.47484627278938474
sg9
F0.036314734482208934
sss(I210
I260
tp136
(dp137
(I0
F0.8
tp138
(dp139
g7
F0.17069988137603795
sg8
F0.6841025191077835
sg9
F0.014725129512963921
ss(F1.6
F2.4
tp140
(dp141
g7
F0.15467060888847825
sg8
F0.5368201432026175
sg9
F0.028903579224844517
ss(F0.8
F1.6
tp142
(dp143
g7
F0.16597961205381395
sg8
F0.6329348440821421
sg9
F0.017503873531987516
sss(I80
I100
tp144
(dp145
(I0
F0.8
tp146
(dp147
g7
F0.19337016574585636
sg8
F0.7353385293534463
sg9
F0.016461589624210175
ss(F1.6
F2.4
tp148
(dp149
g7
F0.16301564722617354
sg8
F0.6254467878062017
sg9
F0.022720058047254094
ss(F0.8
F1.6
tp150
(dp151
g7
F0.18673910457231233
sg8
F0.6994585009024985
sg9
F0.017976301565223514
sss(I500
I670
tp152
(dp153
(I0
F0.8
tp154
(dp155
g7
F0.14487414510329266
sg8
F0.5407728615833302
sg9
F0.021306449940374346
ss(F1.6
F2.4
tp156
(dp157
g7
F0.13225113392217713
sg8
F0.4339136041263701
sg9
F0.030998100086695072
ss(F0.8
F1.6
tp158
(dp159
g7
F0.14668062200956938
sg8
F0.5013538846073735
sg9
F0.027124760017579436
sss(I400
I500
tp160
(dp161
(I0
F0.8
tp162
(dp163
g7
F0.1463040416990689
sg8
F0.580843838139642
sg9
F0.01735606183012872
ss(F1.6
F2.4
tp164
(dp165
g7
F0.1463502770416767
sg8
F0.4583545377438507
sg9
F0.03470874832923727
ss(F0.8
F1.6
tp166
(dp167
g7
F0.15435374624677048
sg8
F0.5401711158500553
sg9
F0.02578628319786881
sss(I30
I40
tp168
(dp169
(I0
F0.8
tp170
(dp171
g7
F0.20588314996477156
sg8
F0.6811308475614425
sg9
F0.026662944214132327
ss(F1.6
F2.4
tp172
(dp173
g7
F0.1525233150340631
sg8
F0.5587173739599559
sg9
F0.02723575986643313
ss(F0.8
F1.6
tp174
(dp175
g7
F0.18191986433584095
sg8
F0.6359390826543326
sg9
F0.02640549203049203
sss(I260
I320
tp176
(dp177
(I0
F0.8
tp178
(dp179
g7
F0.1670235047707703
sg8
F0.6598921582948563
sg9
F0.015341171490147782
ss(F1.6
F2.4
tp180
(dp181
g7
F0.1522502744237102
sg8
F0.5237169797739869
sg9
F0.03404378328496937
ss(F0.8
F1.6
tp182
(dp183
g7
F0.16584850086851446
sg8
F0.609293020297843
sg9
F0.020023753850721894
sss(I70
I80
tp184
(dp185
(I0
F0.8
tp186
(dp187
g7
F0.1924571957427117
sg8
F0.7337074893142539
sg9
F0.016250908839109512
ss(F1.6
F2.4
tp188
(dp189
g7
F0.15790297339593115
sg8
F0.6150125877832251
sg9
F0.02089806607155847
ss(F0.8
F1.6
tp190
(dp191
g7
F0.17584854170220024
sg8
F0.6902694037706958
sg9
F0.017045553170438172
sss(I320
I400
tp192
(dp193
(I0
F0.8
tp194
(dp195
g7
F0.16105812897366031
sg8
F0.6250190339565785
sg9
F0.016900439590469416
ss(F1.6
F2.4
tp196
(dp197
g7
F0.16567981231147358
sg8
F0.4903954802259887
sg9
F0.04073315454948582
ss(F0.8
F1.6
tp198
(dp199
g7
F0.16272254377610082
sg8
F0.5812960874468639
sg9
F0.024288414013664775
sss(I50
I60
tp200
(dp201
(I0
F0.8
tp202
(dp203
g7
F0.1903062525035505
sg8
F0.7210524183200746
sg9
F0.01822121212121212
ss(F1.6
F2.4
tp204
(dp205
g7
F0.1460927436668098
sg8
F0.6060508209344494
sg9
F0.022089346055135333
ss(F0.8
F1.6
tp206
(dp207
g7
F0.17500064872719723
sg8
F0.677090046132916
sg9
F0.018658330384176792
sss(I100
I120
tp208
(dp209
(I0
F0.8
tp210
(dp211
g7
F0.18827597562983697
sg8
F0.7309187209317646
sg9
F0.014808704001731064
ss(F1.6
F2.4
tp212
(dp213
g7
F0.16336570406337847
sg8
F0.6069362768726502
sg9
F0.022539729074870875
ss(F0.8
F1.6
tp214
(dp215
g7
F0.17620443860269955
sg8
F0.6895269031277833
sg9
F0.016512337792067202
sss(I160
I210
tp216
(dp217
(I0
F0.8
tp218
(dp219
g7
F0.17880041775180783
sg8
F0.7021432980571588
sg9
F0.013773653252376106
ss(F1.6
F2.4
tp220
(dp221
g7
F0.15436120159247196
sg8
F0.5601126789683155
sg9
F0.025900967323345524
ss(F0.8
F1.6
tp222
(dp223
g7
F0.16767127939553442
sg8
F0.6539458315082494
sg9
F0.016698340002439437
sss(I120
I160
tp224
(dp225
(I0
F0.8
tp226
(dp227
g7
F0.19279183781635087
sg8
F0.7302216670151997
sg9
F0.015774870435068512
ss(F1.6
F2.4
tp228
(dp229
g7
F0.16969668861886653
sg8
F0.6088649884765869
sg9
F0.027530548521131955
ss(F0.8
F1.6
tp230
(dp231
g7
F0.18459310028086415
sg8
F0.6895631811400172
sg9
F0.018161451087205013
sss(I60
I70
tp232
(dp233
(I0
F0.8
tp234
(dp235
g7
F0.19156450851146842
sg8
F0.7255738356494954
sg9
F0.01613895992555195
ss(F1.6
F2.4
tp236
(dp237
g7
F0.1590909090909091
sg8
F0.6161228960110675
sg9
F0.024078234894071262
ss(F0.8
F1.6
tp238
(dp239
g7
F0.17791062621431775
sg8
F0.6905122299001865
sg9
F0.017720822207521934
sss(I40
I50
tp240
(dp241
(I0
F0.8
tp242
(dp243
g7
F0.18549834289871472
sg8
F0.6969800040554418
sg9
F0.01833843266252017
ss(F1.6
F2.4
tp244
(dp245
g7
F0.15920354751760715
sg8
F0.5990402443014505
sg9
F0.02737988585003473
ss(F0.8
F1.6
tp246
(dp247
g7
F0.17168848457954294
sg8
F0.659171235886365
sg9
F0.020450567683735096
ssssS'none'
p248
Ns.