(dp0
S'TTJets'
p1
(dp2
(I670
I-1
tp3
(dp4
(I0
F0.8
tp5
(dp6
S'c'
p7
F0.0
sS'b'
p8
F0.04276315789473684
sS'other'
p9
F0.0
ss(F1.6
F2.4
tp10
(dp11
g7
F0.0
sg8
F0.0
sg9
F0.0
ss(F0.8
F1.6
tp12
(dp13
g7
F0.0
sg8
F0.011904761904761904
sg9
F0.0
sss(I210
I260
tp14
(dp15
(I0
F0.8
tp16
(dp17
g7
F0.07304116865869854
sg8
F0.5457274364618772
sg9
F0.005883341738107245
ss(F1.6
F2.4
tp18
(dp19
g7
F0.060941828254847646
sg8
F0.37268128161888703
sg9
F0.006664053312426499
ss(F0.8
F1.6
tp20
(dp21
g7
F0.055201698513800426
sg8
F0.4984732824427481
sg9
F0.007641921397379912
sss(I80
I100
tp22
(dp23
(I0
F0.8
tp24
(dp25
g7
F0.0982066609735269
sg8
F0.6982170635395477
sg9
F0.00658011737506669
ss(F1.6
F2.4
tp26
(dp27
g7
F0.0967238689547582
sg8
F0.5805700988947062
sg9
F0.00854353132628153
ss(F0.8
F1.6
tp28
(dp29
g7
F0.10306588388780169
sg8
F0.6620959843290891
sg9
F0.007001166861143524
sss(I500
I670
tp30
(dp31
(I0
F0.8
tp32
(dp33
g7
F0.013468013468013467
sg8
F0.12315270935960591
sg9
F0.0061162079510703364
ss(F1.6
F2.4
tp34
(dp35
g7
F0.0
sg8
F0.07692307692307693
sg9
F0.0058823529411764705
ss(F0.8
F1.6
tp36
(dp37
g7
F0.02112676056338028
sg8
F0.058823529411764705
sg9
F0.00992063492063492
sss(I400
I500
tp38
(dp39
(I0
F0.8
tp40
(dp41
g7
F0.040336134453781515
sg8
F0.20495049504950494
sg9
F0.006414368184733804
ss(F1.6
F2.4
tp42
(dp43
g7
F0.014492753623188406
sg8
F0.16883116883116883
sg9
F0.0
ss(F0.8
F1.6
tp44
(dp45
g7
F0.009202453987730062
sg8
F0.16865079365079366
sg9
F0.0045906656465187455
sss(I30
I40
tp46
(dp47
(I0
F0.8
tp48
(dp49
g7
F0.12599905970850964
sg8
F0.651031894934334
sg9
F0.0072231139646869984
ss(F1.6
F2.4
tp50
(dp51
g7
F0.09701492537313433
sg8
F0.556592039800995
sg9
F0.014556771408493123
ss(F0.8
F1.6
tp52
(dp53
g7
F0.11866359447004608
sg8
F0.6174536760310819
sg9
F0.009295957339482597
sss(I260
I320
tp54
(dp55
(I0
F0.8
tp56
(dp57
g7
F0.06654512306289881
sg8
F0.4689460476787955
sg9
F0.0064500124038700075
ss(F1.6
F2.4
tp58
(dp59
g7
F0.02727272727272727
sg8
F0.27979274611398963
sg9
F0.004777070063694267
ss(F0.8
F1.6
tp60
(dp61
g7
F0.05337519623233909
sg8
F0.39892021595680865
sg9
F0.005630278385986863
sss(I70
I80
tp62
(dp63
(I0
F0.8
tp64
(dp65
g7
F0.09712509712509712
sg8
F0.7070657507360157
sg9
F0.006321307431390688
ss(F1.6
F2.4
tp66
(dp67
g7
F0.0989010989010989
sg8
F0.6160164271047228
sg9
F0.01023102310231023
ss(F0.8
F1.6
tp68
(dp69
g7
F0.09841628959276018
sg8
F0.6769462203836029
sg9
F0.006336633663366337
sss(I320
I400
tp70
(dp71
(I0
F0.8
tp72
(dp73
g7
F0.05172413793103448
sg8
F0.35487345180398494
sg9
F0.006564551422319475
ss(F1.6
F2.4
tp74
(dp75
g7
F0.006896551724137931
sg8
F0.18041237113402062
sg9
F0.005158437730287398
ss(F0.8
F1.6
tp76
(dp77
g7
F0.039473684210526314
sg8
F0.2850467289719626
sg9
F0.005369127516778523
sss(I50
I60
tp78
(dp79
(I0
F0.8
tp80
(dp81
g7
F0.12332112332112333
sg8
F0.7043869516310461
sg9
F0.005401475018178041
ss(F1.6
F2.4
tp82
(dp83
g7
F0.11222780569514237
sg8
F0.5824863174354965
sg9
F0.010117361392148928
ss(F0.8
F1.6
tp84
(dp85
g7
F0.10787671232876712
sg8
F0.6495557749259625
sg9
F0.006080993660240652
sss(I100
I120
tp86
(dp87
(I0
F0.8
tp88
(dp89
g7
F0.10749868904037756
sg8
F0.7038828047219456
sg9
F0.006309523809523809
ss(F1.6
F2.4
tp90
(dp91
g7
F0.08704453441295547
sg8
F0.5914454277286135
sg9
F0.00860446356547459
ss(F0.8
F1.6
tp92
(dp93
g7
F0.10015527950310558
sg8
F0.6554483407860673
sg9
F0.004803222807561202
sss(I160
I210
tp94
(dp95
(I0
F0.8
tp96
(dp97
g7
F0.0973111395646607
sg8
F0.6241992022241025
sg9
F0.005534670008354219
ss(F1.6
F2.4
tp98
(dp99
g7
F0.054613935969868174
sg8
F0.4614785992217899
sg9
F0.007015785517414182
ss(F0.8
F1.6
tp100
(dp101
g7
F0.08186738836265223
sg8
F0.5760661998726926
sg9
F0.005496770647244744
sss(I120
I160
tp102
(dp103
(I0
F0.8
tp104
(dp105
g7
F0.09699355762347889
sg8
F0.6759113254800111
sg9
F0.005651126069974238
ss(F1.6
F2.4
tp106
(dp107
g7
F0.09348441926345609
sg8
F0.5345773874862788
sg9
F0.009817671809256662
ss(F0.8
F1.6
tp108
(dp109
g7
F0.09028871391076115
sg8
F0.6291327264015333
sg9
F0.0057516634712980715
sss(I60
I70
tp110
(dp111
(I0
F0.8
tp112
(dp113
g7
F0.08579668348954578
sg8
F0.7004842056721235
sg9
F0.005633081551657918
ss(F1.6
F2.4
tp114
(dp115
g7
F0.1160337552742616
sg8
F0.5815815815815816
sg9
F0.0076565490839485915
ss(F0.8
F1.6
tp116
(dp117
g7
F0.09329140461215933
sg8
F0.657745947983415
sg9
F0.006338371526084837
sss(I40
I50
tp118
(dp119
(I0
F0.8
tp120
(dp121
g7
F0.1069078947368421
sg8
F0.6798545765611634
sg9
F0.006683719778859642
ss(F1.6
F2.4
tp122
(dp123
g7
F0.13722826086956522
sg8
F0.594839609483961
sg9
F0.014184397163120567
ss(F0.8
F1.6
tp124
(dp125
g7
F0.10925644916540213
sg8
F0.6655854686993189
sg9
F0.009188055527813842
ssssS'WJets'
p126
(dp127
(I670
I-1
tp128
(dp129
(I0
F0.8
tp130
(dp131
g7
F0.008178438661710037
sg8
F0.018465909090909092
sg9
F0.003276595744680851
ss(F1.6
F2.4
tp132
(dp133
g7
F0.0
sg8
F0.03571428571428571
sg9
F0.0011574074074074073
ss(F0.8
F1.6
tp134
(dp135
g7
F0.0013917884481558804
sg8
F0.008968609865470852
sg9
F0.0015953734170904377
sss(I210
I260
tp136
(dp137
(I0
F0.8
tp138
(dp139
g7
F0.06615570794675273
sg8
F0.3747044917257683
sg9
F0.004730713245997089
ss(F1.6
F2.4
tp140
(dp141
g7
F0.0554675118858954
sg8
F0.14210526315789473
sg9
F0.005894240485011789
ss(F0.8
F1.6
tp142
(dp143
g7
F0.055040197897340756
sg8
F0.2876984126984127
sg9
F0.006341979022684771
sss(I80
I100
tp144
(dp145
(I0
F0.8
tp146
(dp147
g7
F0.10519423832387603
sg8
F0.594855305466238
sg9
F0.0036985445986838944
ss(F1.6
F2.4
tp148
(dp149
g7
F0.06555423122765197
sg8
F0.5278810408921933
sg9
F0.007103761499941772
ss(F0.8
F1.6
tp150
(dp151
g7
F0.08705882352941176
sg8
F0.5984615384615385
sg9
F0.005916406896112984
sss(I500
I670
tp152
(dp153
(I0
F0.8
tp154
(dp155
g7
F0.02360248447204969
sg8
F0.11091549295774648
sg9
F0.007725932703059876
ss(F1.6
F2.4
tp156
(dp157
g7
F0.005988023952095809
sg8
F0.024390243902439025
sg9
F0.0036188178528347406
ss(F0.8
F1.6
tp158
(dp159
g7
F0.015439429928741092
sg8
F0.06545454545454546
sg9
F0.0030130034887408817
sss(I400
I500
tp160
(dp161
(I0
F0.8
tp162
(dp163
g7
F0.042799305957200696
sg8
F0.13225806451612904
sg9
F0.00607661822985469
ss(F1.6
F2.4
tp164
(dp165
g7
F0.011152416356877323
sg8
F0.08333333333333333
sg9
F0.003614022406938923
ss(F0.8
F1.6
tp166
(dp167
g7
F0.023575638506876228
sg8
F0.08532423208191127
sg9
F0.0069332673022161695
sss(I30
I40
tp168
(dp169
(I0
F0.8
tp170
(dp171
g7
F0.11351351351351352
sg8
F0.6303191489361702
sg9
F0.006236888359698362
ss(F1.6
F2.4
tp172
(dp173
g7
F0.08743169398907104
sg8
F0.5738636363636364
sg9
F0.009894495162083856
ss(F0.8
F1.6
tp174
(dp175
g7
F0.10864745011086474
sg8
F0.6031390134529148
sg9
F0.007145359019264448
sss(I260
I320
tp176
(dp177
(I0
F0.8
tp178
(dp179
g7
F0.05178571428571429
sg8
F0.23901098901098902
sg9
F0.005351528530336477
ss(F1.6
F2.4
tp180
(dp181
g7
F0.03333333333333333
sg8
F0.07792207792207792
sg9
F0.005577689243027889
ss(F0.8
F1.6
tp182
(dp183
g7
F0.04644808743169399
sg8
F0.22587268993839835
sg9
F0.0070680862485461215
sss(I70
I80
tp184
(dp185
(I0
F0.8
tp186
(dp187
g7
F0.10506134969325154
sg8
F0.6042471042471043
sg9
F0.004230258792302588
ss(F1.6
F2.4
tp188
(dp189
g7
F0.09896907216494845
sg8
F0.5230769230769231
sg9
F0.0069084628670120895
ss(F0.8
F1.6
tp190
(dp191
g7
F0.10010427528675704
sg8
F0.5909090909090909
sg9
F0.005598621877691645
sss(I320
I400
tp192
(dp193
(I0
F0.8
tp194
(dp195
g7
F0.03509551310528654
sg8
F0.19206145966709348
sg9
F0.0060186786579038394
ss(F1.6
F2.4
tp196
(dp197
g7
F0.026785714285714284
sg8
F0.0945945945945946
sg9
F0.005629838142153413
ss(F0.8
F1.6
tp198
(dp199
g7
F0.03848845346396081
sg8
F0.1403118040089087
sg9
F0.005834528933524629
sss(I50
I60
tp200
(dp201
(I0
F0.8
tp202
(dp203
g7
F0.09618668184405237
sg8
F0.6653696498054474
sg9
F0.0049781181619256015
ss(F1.6
F2.4
tp204
(dp205
g7
F0.10241820768136557
sg8
F0.5384615384615384
sg9
F0.007714561234329798
ss(F0.8
F1.6
tp206
(dp207
g7
F0.09112519809825674
sg8
F0.6358695652173914
sg9
F0.005346841142535528
sss(I100
I120
tp208
(dp209
(I0
F0.8
tp210
(dp211
g7
F0.08862786972770956
sg8
F0.5614266842800528
sg9
F0.004618510992056161
ss(F1.6
F2.4
tp212
(dp213
g7
F0.07943262411347518
sg8
F0.4034334763948498
sg9
F0.005958587814687919
ss(F0.8
F1.6
tp214
(dp215
g7
F0.09201520912547528
sg8
F0.5362563237774031
sg9
F0.004356045039861921
sss(I160
I210
tp216
(dp217
(I0
F0.8
tp218
(dp219
g7
F0.08144946808510638
sg8
F0.41729323308270677
sg9
F0.00582471666591412
ss(F1.6
F2.4
tp220
(dp221
g7
F0.06447963800904978
sg8
F0.2892857142857143
sg9
F0.007712387280493593
ss(F0.8
F1.6
tp222
(dp223
g7
F0.08227848101265822
sg8
F0.37083333333333335
sg9
F0.007077435470441299
sss(I120
I160
tp224
(dp225
(I0
F0.8
tp226
(dp227
g7
F0.08638743455497382
sg8
F0.501779359430605
sg9
F0.004920250932797573
ss(F1.6
F2.4
tp228
(dp229
g7
F0.09137577002053388
sg8
F0.3812316715542522
sg9
F0.008747235069374623
ss(F0.8
F1.6
tp230
(dp231
g7
F0.08450067781292363
sg8
F0.49039692701664533
sg9
F0.005901961855839117
sss(I60
I70
tp232
(dp233
(I0
F0.8
tp234
(dp235
g7
F0.09052333804809053
sg8
F0.6276923076923077
sg9
F0.00549111126364198
ss(F1.6
F2.4
tp236
(dp237
g7
F0.0784313725490196
sg8
F0.5201793721973094
sg9
F0.0074314909428704135
ss(F0.8
F1.6
tp238
(dp239
g7
F0.09057971014492754
sg8
F0.6093418259023354
sg9
F0.005487091841324098
sss(I40
I50
tp240
(dp241
(I0
F0.8
tp242
(dp243
g7
F0.11163670766319773
sg8
F0.6597145993413831
sg9
F0.006942712230814002
ss(F1.6
F2.4
tp244
(dp245
g7
F0.11098527746319366
sg8
F0.5405405405405406
sg9
F0.010567101091933779
ss(F0.8
F1.6
tp246
(dp247
g7
F0.10975609756097561
sg8
F0.6132352941176471
sg9
F0.006515701773125401
ssssS'none'
p248
(dp249
(I670
I-1
tp250
(dp251
(I0
F0.8
tp252
(dp253
g7
F0.5
sg8
F0.5
sg9
F0.5
ss(F1.6
F2.4
tp254
(dp255
g7
F0.5
sg8
F0.5
sg9
F0.5
ss(F0.8
F1.6
tp256
(dp257
g7
F0.5
sg8
F0.5
sg9
F0.5
sss(I210
I260
tp258
(dp259
(I0
F0.8
tp260
(dp261
g7
F0.5
sg8
F0.5
sg9
F0.5
ss(F1.6
F2.4
tp262
(dp263
g7
F0.5
sg8
F0.5
sg9
F0.5
ss(F0.8
F1.6
tp264
(dp265
g7
F0.5
sg8
F0.5
sg9
F0.5
sss(I80
I100
tp266
(dp267
(I0
F0.8
tp268
(dp269
g7
F0.5
sg8
F0.5
sg9
F0.5
ss(F1.6
F2.4
tp270
(dp271
g7
F0.5
sg8
F0.5
sg9
F0.5
ss(F0.8
F1.6
tp272
(dp273
g7
F0.5
sg8
F0.5
sg9
F0.5
sss(I500
I670
tp274
(dp275
(I0
F0.8
tp276
(dp277
g7
F0.5
sg8
F0.5
sg9
F0.5
ss(F1.6
F2.4
tp278
(dp279
g7
F0.5
sg8
F0.5
sg9
F0.5
ss(F0.8
F1.6
tp280
(dp281
g7
F0.5
sg8
F0.5
sg9
F0.5
sss(I400
I500
tp282
(dp283
(I0
F0.8
tp284
(dp285
g7
F0.5
sg8
F0.5
sg9
F0.5
ss(F1.6
F2.4
tp286
(dp287
g7
F0.5
sg8
F0.5
sg9
F0.5
ss(F0.8
F1.6
tp288
(dp289
g7
F0.5
sg8
F0.5
sg9
F0.5
sss(I30
I40
tp290
(dp291
(I0
F0.8
tp292
(dp293
g7
F0.5
sg8
F0.5
sg9
F0.5
ss(F1.6
F2.4
tp294
(dp295
g7
F0.5
sg8
F0.5
sg9
F0.5
ss(F0.8
F1.6
tp296
(dp297
g7
F0.5
sg8
F0.5
sg9
F0.5
sss(I260
I320
tp298
(dp299
(I0
F0.8
tp300
(dp301
g7
F0.5
sg8
F0.5
sg9
F0.5
ss(F1.6
F2.4
tp302
(dp303
g7
F0.5
sg8
F0.5
sg9
F0.5
ss(F0.8
F1.6
tp304
(dp305
g7
F0.5
sg8
F0.5
sg9
F0.5
sss(I70
I80
tp306
(dp307
(I0
F0.8
tp308
(dp309
g7
F0.5
sg8
F0.5
sg9
F0.5
ss(F1.6
F2.4
tp310
(dp311
g7
F0.5
sg8
F0.5
sg9
F0.5
ss(F0.8
F1.6
tp312
(dp313
g7
F0.5
sg8
F0.5
sg9
F0.5
sss(I320
I400
tp314
(dp315
(I0
F0.8
tp316
(dp317
g7
F0.5
sg8
F0.5
sg9
F0.5
ss(F1.6
F2.4
tp318
(dp319
g7
F0.5
sg8
F0.5
sg9
F0.5
ss(F0.8
F1.6
tp320
(dp321
g7
F0.5
sg8
F0.5
sg9
F0.5
sss(I50
I60
tp322
(dp323
(I0
F0.8
tp324
(dp325
g7
F0.5
sg8
F0.5
sg9
F0.5
ss(F1.6
F2.4
tp326
(dp327
g7
F0.5
sg8
F0.5
sg9
F0.5
ss(F0.8
F1.6
tp328
(dp329
g7
F0.5
sg8
F0.5
sg9
F0.5
sss(I100
I120
tp330
(dp331
(I0
F0.8
tp332
(dp333
g7
F0.5
sg8
F0.5
sg9
F0.5
ss(F1.6
F2.4
tp334
(dp335
g7
F0.5
sg8
F0.5
sg9
F0.5
ss(F0.8
F1.6
tp336
(dp337
g7
F0.5
sg8
F0.5
sg9
F0.5
sss(I160
I210
tp338
(dp339
(I0
F0.8
tp340
(dp341
g7
F0.5
sg8
F0.5
sg9
F0.5
ss(F1.6
F2.4
tp342
(dp343
g7
F0.5
sg8
F0.5
sg9
F0.5
ss(F0.8
F1.6
tp344
(dp345
g7
F0.5
sg8
F0.5
sg9
F0.5
sss(I120
I160
tp346
(dp347
(I0
F0.8
tp348
(dp349
g7
F0.5
sg8
F0.5
sg9
F0.5
ss(F1.6
F2.4
tp350
(dp351
g7
F0.5
sg8
F0.5
sg9
F0.5
ss(F0.8
F1.6
tp352
(dp353
g7
F0.5
sg8
F0.5
sg9
F0.5
sss(I60
I70
tp354
(dp355
(I0
F0.8
tp356
(dp357
g7
F0.5
sg8
F0.5
sg9
F0.5
ss(F1.6
F2.4
tp358
(dp359
g7
F0.5
sg8
F0.5
sg9
F0.5
ss(F0.8
F1.6
tp360
(dp361
g7
F0.5
sg8
F0.5
sg9
F0.5
sss(I40
I50
tp362
(dp363
(I0
F0.8
tp364
(dp365
g7
F0.5
sg8
F0.5
sg9
F0.5
ss(F1.6
F2.4
tp366
(dp367
g7
F0.5
sg8
F0.5
sg9
F0.5
ss(F0.8
F1.6
tp368
(dp369
g7
F0.5
sg8
F0.5
sg9
F0.5
ssss.