(dp0
S'none'
p1
(dp2
(I70
I100
tp3
(dp4
(I0
F0.8
tp5
(dp6
S'c'
p7
F0.5
sS'b'
p8
F0.5
sS'other'
p9
F0.5
ss(F1.6
F2.4
tp10
(dp11
g7
F0.5
sg8
F0.5
sg9
F0.5
ss(F0.8
F1.6
tp12
(dp13
g7
F0.5
sg8
F0.5
sg9
F0.5
sss(I600
I1000
tp14
(dp15
(I0
F0.8
tp16
(dp17
g7
F0.5
sg8
F0.5
sg9
F0.5
ss(F1.6
F2.4
tp18
(dp19
g7
F0.5
sg8
F0.5
sg9
F0.5
ss(F0.8
F1.6
tp20
(dp21
g7
F0.5
sg8
F0.5
sg9
F0.5
sss(I200
I300
tp22
(dp23
(I0
F0.8
tp24
(dp25
g7
F0.5
sg8
F0.5
sg9
F0.5
ss(F1.6
F2.4
tp26
(dp27
g7
F0.5
sg8
F0.5
sg9
F0.5
ss(F0.8
F1.6
tp28
(dp29
g7
F0.5
sg8
F0.5
sg9
F0.5
sss(I100
I140
tp30
(dp31
(I0
F0.8
tp32
(dp33
g7
F0.5
sg8
F0.5
sg9
F0.5
ss(F1.6
F2.4
tp34
(dp35
g7
F0.5
sg8
F0.5
sg9
F0.5
ss(F0.8
F1.6
tp36
(dp37
g7
F0.5
sg8
F0.5
sg9
F0.5
sss(I1000
I-1
tp38
(dp39
(I0
F0.8
tp40
(dp41
g7
F0.5
sg8
F0.5
sg9
F0.5
ss(F1.6
F2.4
tp42
(dp43
g7
F0.5
sg8
F0.5
sg9
F0.5
ss(F0.8
F1.6
tp44
(dp45
g7
F0.5
sg8
F0.5
sg9
F0.5
sss(I50
I70
tp46
(dp47
(I0
F0.8
tp48
(dp49
g7
F0.5
sg8
F0.5
sg9
F0.5
ss(F1.6
F2.4
tp50
(dp51
g7
F0.5
sg8
F0.5
sg9
F0.5
ss(F0.8
F1.6
tp52
(dp53
g7
F0.5
sg8
F0.5
sg9
F0.5
sss(I300
I600
tp54
(dp55
(I0
F0.8
tp56
(dp57
g7
F0.5
sg8
F0.5
sg9
F0.5
ss(F1.6
F2.4
tp58
(dp59
g7
F0.5
sg8
F0.5
sg9
F0.5
ss(F0.8
F1.6
tp60
(dp61
g7
F0.5
sg8
F0.5
sg9
F0.5
sss(I30
I50
tp62
(dp63
(I0
F0.8
tp64
(dp65
g7
F0.5
sg8
F0.5
sg9
F0.5
ss(F1.6
F2.4
tp66
(dp67
g7
F0.5
sg8
F0.5
sg9
F0.5
ss(F0.8
F1.6
tp68
(dp69
g7
F0.5
sg8
F0.5
sg9
F0.5
sss(I140
I200
tp70
(dp71
(I0
F0.8
tp72
(dp73
g7
F0.5
sg8
F0.5
sg9
F0.5
ss(F1.6
F2.4
tp74
(dp75
g7
F0.5
sg8
F0.5
sg9
F0.5
ss(F0.8
F1.6
tp76
(dp77
g7
F0.5
sg8
F0.5
sg9
F0.5
ssssS'signal_inclusive'
p78
(dp79
(I70
I100
tp80
(dp81
(I0
F0.8
tp82
(dp83
g7
F0.14571819635788005
sg8
F0.5508796577157636
sg9
F0.004865176092461567
ss(F1.6
F2.4
tp84
(dp85
g7
F0.12508784529960074
sg8
F0.5412879708383961
sg9
F0.0056949828033193714
ss(F0.8
F1.6
tp86
(dp87
g7
F0.1382757298258751
sg8
F0.5648721650444745
sg9
F0.0045186251345586395
sss(I600
I1000
tp88
(dp89
(I0
F0.8
tp90
(dp91
g7
F0.10703643977250858
sg8
F0.5098923248289396
sg9
F0.007390734992812589
ss(F1.6
F2.4
tp92
(dp93
g7
F0.07183060841597427
sg8
F0.3569620253164557
sg9
F0.002479082739386427
ss(F0.8
F1.6
tp94
(dp95
g7
F0.10374374102394908
sg8
F0.49123468426013195
sg9
F0.005131756929498771
sss(I200
I300
tp96
(dp97
(I0
F0.8
tp98
(dp99
g7
F0.13935752741426125
sg8
F0.5026268208644629
sg9
F0.005633439638279802
ss(F1.6
F2.4
tp100
(dp101
g7
F0.11330078378985448
sg8
F0.4803988526157629
sg9
F0.004778849087838081
ss(F0.8
F1.6
tp102
(dp103
g7
F0.1333250635737766
sg8
F0.5110664669027513
sg9
F0.004580231789496138
sss(I100
I140
tp104
(dp105
(I0
F0.8
tp106
(dp107
g7
F0.15144829926922138
sg8
F0.5258607379959858
sg9
F0.004992863012232817
ss(F1.6
F2.4
tp108
(dp109
g7
F0.13105058284654225
sg8
F0.530356416858653
sg9
F0.0055663415235000496
ss(F0.8
F1.6
tp110
(dp111
g7
F0.1449078459776527
sg8
F0.5447900089013568
sg9
F0.00456726809587874
sss(I1000
I-1
tp112
(dp113
(I0
F0.8
tp114
(dp115
g7
F0.08501542162361711
sg8
F0.47700994891099757
sg9
F0.006107832980496374
ss(F1.6
F2.4
tp116
(dp117
g7
F0.05128205128205128
sg8
F0.4666666666666667
sg9
F0.0
ss(F0.8
F1.6
tp118
(dp119
g7
F0.08371022119891457
sg8
F0.4654255319148936
sg9
F0.004894088858300834
sss(I50
I70
tp120
(dp121
(I0
F0.8
tp122
(dp123
g7
F0.141908103403091
sg8
F0.569185759725128
sg9
F0.004815279738482883
ss(F1.6
F2.4
tp124
(dp125
g7
F0.11703879908453624
sg8
F0.5408093571245625
sg9
F0.005805303325638678
ss(F0.8
F1.6
tp126
(dp127
g7
F0.13109865512329577
sg8
F0.5825359415507896
sg9
F0.0044619407234551215
sss(I300
I600
tp128
(dp129
(I0
F0.8
tp130
(dp131
g7
F0.1215822746357464
sg8
F0.5122238412740466
sg9
F0.006128948427126048
ss(F1.6
F2.4
tp132
(dp133
g7
F0.10601928404234759
sg8
F0.468363136176066
sg9
F0.005068681654222273
ss(F0.8
F1.6
tp134
(dp135
g7
F0.12007346705870232
sg8
F0.5109910443342461
sg9
F0.004834258530017022
sss(I30
I50
tp136
(dp137
(I0
F0.8
tp138
(dp139
g7
F0.14936795365639294
sg8
F0.575297372383765
sg9
F0.0063888810439758
ss(F1.6
F2.4
tp140
(dp141
g7
F0.11567824953233943
sg8
F0.5165402268781659
sg9
F0.007444184496357308
ss(F0.8
F1.6
tp142
(dp143
g7
F0.13401998028030793
sg8
F0.5694682934176833
sg9
F0.005945484136166594
sss(I140
I200
tp144
(dp145
(I0
F0.8
tp146
(dp147
g7
F0.14467687210776237
sg8
F0.5049088842192291
sg9
F0.0051350851445906955
ss(F1.6
F2.4
tp148
(dp149
g7
F0.12328182114291919
sg8
F0.49552706815456976
sg9
F0.005245529360415467
ss(F0.8
F1.6
tp150
(dp151
g7
F0.13954466932207052
sg8
F0.5198498498498498
sg9
F0.004449224825298668
ssss.