(dp0
S'TTJets'
p1
(dp2
(I670
I-1
tp3
(dp4
(I0
F0.8
tp5
(dp6
S'c'
p7
F0.0945945945945946
sS'b'
p8
F0.45723684210526316
sS'other'
p9
F0.0
ss(F1.6
F2.4
tp10
(dp11
g7
F0.0
sg8
F0.5
sg9
F0.0
ss(F0.8
F1.6
tp12
(dp13
g7
F0.05263157894736842
sg8
F0.40476190476190477
sg9
F0.03225806451612903
sss(I210
I260
tp14
(dp15
(I0
F0.8
tp16
(dp17
g7
F0.11553784860557768
sg8
F0.6347808685211127
sg9
F0.011430492519751218
ss(F1.6
F2.4
tp18
(dp19
g7
F0.07756232686980609
sg8
F0.4822934232715008
sg9
F0.01724813798510388
ss(F0.8
F1.6
tp20
(dp21
g7
F0.11889596602972399
sg8
F0.5797709923664122
sg9
F0.011572052401746726
sss(I80
I100
tp22
(dp23
(I0
F0.8
tp24
(dp25
g7
F0.14560204953031597
sg8
F0.6891228909895896
sg9
F0.007024719900409034
ss(F1.6
F2.4
tp26
(dp27
g7
F0.1294851794071763
sg8
F0.578824898196626
sg9
F0.015459723352318959
ss(F0.8
F1.6
tp28
(dp29
g7
F0.1141552511415525
sg8
F0.647796278158668
sg9
F0.008751458576429404
sss(I500
I670
tp30
(dp31
(I0
F0.8
tp32
(dp33
g7
F0.1111111111111111
sg8
F0.4909688013136289
sg9
F0.012232415902140673
ss(F1.6
F2.4
tp34
(dp35
g7
F0.041666666666666664
sg8
F0.38461538461538464
sg9
F0.01764705882352941
ss(F0.8
F1.6
tp36
(dp37
g7
F0.09154929577464789
sg8
F0.4532871972318339
sg9
F0.00992063492063492
sss(I400
I500
tp38
(dp39
(I0
F0.8
tp40
(dp41
g7
F0.11764705882352941
sg8
F0.5108910891089109
sg9
F0.007055805003207184
ss(F1.6
F2.4
tp42
(dp43
g7
F0.13043478260869565
sg8
F0.5194805194805194
sg9
F0.022900763358778626
ss(F0.8
F1.6
tp44
(dp45
g7
F0.11042944785276074
sg8
F0.48412698412698413
sg9
F0.011476664116296864
sss(I30
I40
tp46
(dp47
(I0
F0.8
tp48
(dp49
g7
F0.15843911612599906
sg8
F0.6318532416093392
sg9
F0.010309914804296827
ss(F1.6
F2.4
tp50
(dp51
g7
F0.09594882729211088
sg8
F0.5236318407960199
sg9
F0.0156610782049995
ss(F0.8
F1.6
tp52
(dp53
g7
F0.13018433179723501
sg8
F0.580394500896593
sg9
F0.01268285652518556
sss(I260
I320
tp54
(dp55
(I0
F0.8
tp56
(dp57
g7
F0.13217866909753875
sg8
F0.6232747804265998
sg9
F0.011659637806995783
ss(F1.6
F2.4
tp58
(dp59
g7
F0.10909090909090909
sg8
F0.49740932642487046
sg9
F0.01751592356687898
ss(F0.8
F1.6
tp60
(dp61
g7
F0.0989010989010989
sg8
F0.5614877024595081
sg9
F0.01376290272130122
sss(I70
I80
tp62
(dp63
(I0
F0.8
tp64
(dp65
g7
F0.12432012432012432
sg8
F0.6901373895976447
sg9
F0.008788159111933395
ss(F1.6
F2.4
tp66
(dp67
g7
F0.1043956043956044
sg8
F0.5728952772073922
sg9
F0.01089108910891089
ss(F0.8
F1.6
tp68
(dp69
g7
F0.12217194570135746
sg8
F0.6461075592327943
sg9
F0.007128712871287129
sss(I320
I400
tp70
(dp71
(I0
F0.8
tp72
(dp73
g7
F0.10477453580901856
sg8
F0.5934302638664513
sg9
F0.012035010940919038
ss(F1.6
F2.4
tp74
(dp75
g7
F0.10344827586206896
sg8
F0.4175257731958763
sg9
F0.022844509948415623
ss(F0.8
F1.6
tp76
(dp77
g7
F0.1162280701754386
sg8
F0.5467289719626168
sg9
F0.012080536912751677
sss(I50
I60
tp78
(dp79
(I0
F0.8
tp80
(dp81
g7
F0.13186813186813187
sg8
F0.6875140607424072
sg9
F0.008206087046847409
ss(F1.6
F2.4
tp82
(dp83
g7
F0.11390284757118928
sg8
F0.5559030492572322
sg9
F0.01112909753136382
ss(F0.8
F1.6
tp84
(dp85
g7
F0.11643835616438356
sg8
F0.6196117143797302
sg9
F0.009056799068443524
sss(I100
I120
tp86
(dp87
(I0
F0.8
tp88
(dp89
g7
F0.14892501310959622
sg8
F0.7004693500213341
sg9
F0.007023809523809524
ss(F1.6
F2.4
tp90
(dp91
g7
F0.0951417004048583
sg8
F0.5811209439528023
sg9
F0.01156224791610648
ss(F0.8
F1.6
tp92
(dp93
g7
F0.1281055900621118
sg8
F0.6580371852200517
sg9
F0.005887821506042764
sss(I160
I210
tp94
(dp95
(I0
F0.8
tp96
(dp97
g7
F0.14212548015364918
sg8
F0.6521213586365284
sg9
F0.006787802840434419
ss(F1.6
F2.4
tp98
(dp99
g7
F0.09416195856873823
sg8
F0.49494163424124515
sg9
F0.013781007266349286
ss(F0.8
F1.6
tp100
(dp101
g7
F0.13937753721244925
sg8
F0.6076808826649692
sg9
F0.007145801841418167
sss(I120
I160
tp102
(dp103
(I0
F0.8
tp104
(dp105
g7
F0.14137437365783823
sg8
F0.6889898896206289
sg9
F0.0075625363583478765
ss(F1.6
F2.4
tp106
(dp107
g7
F0.12322946175637393
sg8
F0.5691547749725576
sg9
F0.013424163494289721
ss(F0.8
F1.6
tp108
(dp109
g7
F0.13858267716535433
sg8
F0.640472767928446
sg9
F0.008232773204014887
sss(I60
I70
tp110
(dp111
(I0
F0.8
tp112
(dp113
g7
F0.136986301369863
sg8
F0.6824994235646761
sg9
F0.007297401101011394
ss(F1.6
F2.4
tp114
(dp115
g7
F0.12658227848101267
sg8
F0.5505505505505506
sg9
F0.011484823625922888
ss(F0.8
F1.6
tp116
(dp117
g7
F0.12368972746331237
sg8
F0.6302299283829627
sg9
F0.009101251422070534
sss(I40
I50
tp118
(dp119
(I0
F0.8
tp120
(dp121
g7
F0.12664473684210525
sg8
F0.6501283147989735
sg9
F0.007673900486838848
ss(F1.6
F2.4
tp122
(dp123
g7
F0.125
sg8
F0.5543933054393305
sg9
F0.016749660479855138
ss(F0.8
F1.6
tp124
(dp125
g7
F0.1054628224582701
sg8
F0.618877716509893
sg9
F0.011584939578547887
ssssS'WJets'
p126
(dp127
(I670
I-1
tp128
(dp129
(I0
F0.8
tp130
(dp131
g7
F0.10532837670384139
sg8
F0.4630681818181818
sg9
F0.02051063829787234
ss(F1.6
F2.4
tp132
(dp133
g7
F0.09174311926605505
sg8
F0.2857142857142857
sg9
F0.02662037037037037
ss(F0.8
F1.6
tp134
(dp135
g7
F0.08907446068197634
sg8
F0.4910313901345291
sg9
F0.028716721507627878
sss(I210
I260
tp136
(dp137
(I0
F0.8
tp138
(dp139
g7
F0.13231141589350545
sg8
F0.6170212765957447
sg9
F0.008005822416302766
ss(F1.6
F2.4
tp140
(dp141
g7
F0.11410459587955626
sg8
F0.4263157894736842
sg9
F0.015493432132030987
ss(F0.8
F1.6
tp142
(dp143
g7
F0.1038961038961039
sg8
F0.5853174603174603
sg9
F0.010407350191072445
sss(I80
I100
tp144
(dp145
(I0
F0.8
tp146
(dp147
g7
F0.1326931470973374
sg8
F0.6870310825294748
sg9
F0.0060521638887554635
ss(F1.6
F2.4
tp148
(dp149
g7
F0.11680572109654351
sg8
F0.5687732342007435
sg9
F0.01211133108186794
ss(F0.8
F1.6
tp150
(dp151
g7
F0.11588235294117646
sg8
F0.6246153846153846
sg9
F0.008651949869584579
sss(I500
I670
tp152
(dp153
(I0
F0.8
tp154
(dp155
g7
F0.10434782608695652
sg8
F0.5492957746478874
sg9
F0.013113754193351632
ss(F1.6
F2.4
tp156
(dp157
g7
F0.09580838323353294
sg8
F0.43902439024390244
sg9
F0.017490952955367914
ss(F0.8
F1.6
tp158
(dp159
g7
F0.1187648456057007
sg8
F0.5127272727272727
sg9
F0.016492229622581667
sss(I400
I500
tp160
(dp161
(I0
F0.8
tp162
(dp163
g7
F0.10179294389820706
sg8
F0.5645161290322581
sg9
F0.00845442536327609
ss(F1.6
F2.4
tp164
(dp165
g7
F0.10037174721189591
sg8
F0.375
sg9
F0.025659559089266353
ss(F0.8
F1.6
tp166
(dp167
g7
F0.1031434184675835
sg8
F0.515358361774744
sg9
F0.01324749288102018
sss(I30
I40
tp168
(dp169
(I0
F0.8
tp170
(dp171
g7
F0.14831081081081082
sg8
F0.62322695035461
sg9
F0.011283098032545217
ss(F1.6
F2.4
tp172
(dp173
g7
F0.09523809523809523
sg8
F0.5151515151515151
sg9
F0.016345050019133
ss(F0.8
F1.6
tp174
(dp175
g7
F0.12638580931263857
sg8
F0.57847533632287
sg9
F0.012574430823117337
sss(I260
I320
tp176
(dp177
(I0
F0.8
tp178
(dp179
g7
F0.12410714285714286
sg8
F0.5989010989010989
sg9
F0.00862933975516757
ss(F1.6
F2.4
tp180
(dp181
g7
F0.14444444444444443
sg8
F0.4025974025974026
sg9
F0.016533864541832668
ss(F0.8
F1.6
tp182
(dp183
g7
F0.11885245901639344
sg8
F0.6078028747433265
sg9
F0.012436253019593809
sss(I70
I80
tp184
(dp185
(I0
F0.8
tp186
(dp187
g7
F0.12269938650306748
sg8
F0.6486486486486487
sg9
F0.006138022561380225
ss(F1.6
F2.4
tp188
(dp189
g7
F0.12989690721649486
sg8
F0.5435897435897435
sg9
F0.010554596046824027
ss(F0.8
F1.6
tp190
(dp191
g7
F0.10740354535974973
sg8
F0.6287878787878788
sg9
F0.0071059431524547806
sss(I320
I400
tp192
(dp193
(I0
F0.8
tp194
(dp195
g7
F0.09995557529986672
sg8
F0.587708066581306
sg9
F0.008855067450709098
ss(F1.6
F2.4
tp196
(dp197
g7
F0.12946428571428573
sg8
F0.38513513513513514
sg9
F0.020877316443818905
ss(F0.8
F1.6
tp198
(dp199
g7
F0.11826452064380685
sg8
F0.5256124721603563
sg9
F0.01291248206599713
sss(I50
I60
tp200
(dp201
(I0
F0.8
tp202
(dp203
g7
F0.12749003984063745
sg8
F0.6679636835278858
sg9
F0.007494529540481401
ss(F1.6
F2.4
tp204
(dp205
g7
F0.11522048364153627
sg8
F0.548951048951049
sg9
F0.013621022179363548
ss(F0.8
F1.6
tp206
(dp207
g7
F0.10221870047543581
sg8
F0.6413043478260869
sg9
F0.008583087097228085
sss(I100
I120
tp208
(dp209
(I0
F0.8
tp210
(dp211
g7
F0.13507741591030434
sg8
F0.6605019815059445
sg9
F0.005419052897345896
ss(F1.6
F2.4
tp212
(dp213
g7
F0.11914893617021277
sg8
F0.49356223175965663
sg9
F0.010427528675703858
ss(F0.8
F1.6
tp214
(dp215
g7
F0.12243346007604562
sg8
F0.6155143338954469
sg9
F0.00723267855675187
sss(I160
I210
tp216
(dp217
(I0
F0.8
tp218
(dp219
g7
F0.13198138297872342
sg8
F0.6024436090225563
sg9
F0.007088996252314083
ss(F1.6
F2.4
tp220
(dp221
g7
F0.1165158371040724
sg8
F0.4642857142857143
sg9
F0.015306122448979591
ss(F0.8
F1.6
tp222
(dp223
g7
F0.1314508276533593
sg8
F0.575
sg9
F0.008029023432853574
sss(I120
I160
tp224
(dp225
(I0
F0.8
tp226
(dp227
g7
F0.1380890052356021
sg8
F0.6539145907473309
sg9
F0.0069293533970232486
ss(F1.6
F2.4
tp228
(dp229
g7
F0.13449691991786447
sg8
F0.5249266862170088
sg9
F0.015684697365775185
ss(F0.8
F1.6
tp230
(dp231
g7
F0.1333032083145052
sg8
F0.6504481434058899
sg9
F0.008634351603912783
sss(I60
I70
tp232
(dp233
(I0
F0.8
tp234
(dp235
g7
F0.1181046676096181
sg8
F0.6492307692307693
sg9
F0.005147916809664356
ss(F1.6
F2.4
tp236
(dp237
g7
F0.09090909090909091
sg8
F0.5112107623318386
sg9
F0.011456881870258555
ss(F0.8
F1.6
tp238
(dp239
g7
F0.11684782608695653
sg8
F0.6305732484076433
sg9
F0.009444994153098858
sss(I40
I50
tp240
(dp241
(I0
F0.8
tp242
(dp243
g7
F0.13670766319772942
sg8
F0.6300768386388584
sg9
F0.007316870374989607
ss(F1.6
F2.4
tp244
(dp245
g7
F0.11098527746319366
sg8
F0.527027027027027
sg9
F0.014617823177175061
ss(F0.8
F1.6
tp246
(dp247
g7
F0.13356562137049943
sg8
F0.5897058823529412
sg9
F0.00934629352702414
ssssS'none'
p248
(dp249
(I670
I-1
tp250
(dp251
(I0
F0.8
tp252
(dp253
g7
F0.5
sg8
F0.5
sg9
F0.5
ss(F1.6
F2.4
tp254
(dp255
g7
F0.5
sg8
F0.5
sg9
F0.5
ss(F0.8
F1.6
tp256
(dp257
g7
F0.5
sg8
F0.5
sg9
F0.5
sss(I210
I260
tp258
(dp259
(I0
F0.8
tp260
(dp261
g7
F0.5
sg8
F0.5
sg9
F0.5
ss(F1.6
F2.4
tp262
(dp263
g7
F0.5
sg8
F0.5
sg9
F0.5
ss(F0.8
F1.6
tp264
(dp265
g7
F0.5
sg8
F0.5
sg9
F0.5
sss(I80
I100
tp266
(dp267
(I0
F0.8
tp268
(dp269
g7
F0.5
sg8
F0.5
sg9
F0.5
ss(F1.6
F2.4
tp270
(dp271
g7
F0.5
sg8
F0.5
sg9
F0.5
ss(F0.8
F1.6
tp272
(dp273
g7
F0.5
sg8
F0.5
sg9
F0.5
sss(I500
I670
tp274
(dp275
(I0
F0.8
tp276
(dp277
g7
F0.5
sg8
F0.5
sg9
F0.5
ss(F1.6
F2.4
tp278
(dp279
g7
F0.5
sg8
F0.5
sg9
F0.5
ss(F0.8
F1.6
tp280
(dp281
g7
F0.5
sg8
F0.5
sg9
F0.5
sss(I400
I500
tp282
(dp283
(I0
F0.8
tp284
(dp285
g7
F0.5
sg8
F0.5
sg9
F0.5
ss(F1.6
F2.4
tp286
(dp287
g7
F0.5
sg8
F0.5
sg9
F0.5
ss(F0.8
F1.6
tp288
(dp289
g7
F0.5
sg8
F0.5
sg9
F0.5
sss(I30
I40
tp290
(dp291
(I0
F0.8
tp292
(dp293
g7
F0.5
sg8
F0.5
sg9
F0.5
ss(F1.6
F2.4
tp294
(dp295
g7
F0.5
sg8
F0.5
sg9
F0.5
ss(F0.8
F1.6
tp296
(dp297
g7
F0.5
sg8
F0.5
sg9
F0.5
sss(I260
I320
tp298
(dp299
(I0
F0.8
tp300
(dp301
g7
F0.5
sg8
F0.5
sg9
F0.5
ss(F1.6
F2.4
tp302
(dp303
g7
F0.5
sg8
F0.5
sg9
F0.5
ss(F0.8
F1.6
tp304
(dp305
g7
F0.5
sg8
F0.5
sg9
F0.5
sss(I70
I80
tp306
(dp307
(I0
F0.8
tp308
(dp309
g7
F0.5
sg8
F0.5
sg9
F0.5
ss(F1.6
F2.4
tp310
(dp311
g7
F0.5
sg8
F0.5
sg9
F0.5
ss(F0.8
F1.6
tp312
(dp313
g7
F0.5
sg8
F0.5
sg9
F0.5
sss(I320
I400
tp314
(dp315
(I0
F0.8
tp316
(dp317
g7
F0.5
sg8
F0.5
sg9
F0.5
ss(F1.6
F2.4
tp318
(dp319
g7
F0.5
sg8
F0.5
sg9
F0.5
ss(F0.8
F1.6
tp320
(dp321
g7
F0.5
sg8
F0.5
sg9
F0.5
sss(I50
I60
tp322
(dp323
(I0
F0.8
tp324
(dp325
g7
F0.5
sg8
F0.5
sg9
F0.5
ss(F1.6
F2.4
tp326
(dp327
g7
F0.5
sg8
F0.5
sg9
F0.5
ss(F0.8
F1.6
tp328
(dp329
g7
F0.5
sg8
F0.5
sg9
F0.5
sss(I100
I120
tp330
(dp331
(I0
F0.8
tp332
(dp333
g7
F0.5
sg8
F0.5
sg9
F0.5
ss(F1.6
F2.4
tp334
(dp335
g7
F0.5
sg8
F0.5
sg9
F0.5
ss(F0.8
F1.6
tp336
(dp337
g7
F0.5
sg8
F0.5
sg9
F0.5
sss(I160
I210
tp338
(dp339
(I0
F0.8
tp340
(dp341
g7
F0.5
sg8
F0.5
sg9
F0.5
ss(F1.6
F2.4
tp342
(dp343
g7
F0.5
sg8
F0.5
sg9
F0.5
ss(F0.8
F1.6
tp344
(dp345
g7
F0.5
sg8
F0.5
sg9
F0.5
sss(I120
I160
tp346
(dp347
(I0
F0.8
tp348
(dp349
g7
F0.5
sg8
F0.5
sg9
F0.5
ss(F1.6
F2.4
tp350
(dp351
g7
F0.5
sg8
F0.5
sg9
F0.5
ss(F0.8
F1.6
tp352
(dp353
g7
F0.5
sg8
F0.5
sg9
F0.5
sss(I60
I70
tp354
(dp355
(I0
F0.8
tp356
(dp357
g7
F0.5
sg8
F0.5
sg9
F0.5
ss(F1.6
F2.4
tp358
(dp359
g7
F0.5
sg8
F0.5
sg9
F0.5
ss(F0.8
F1.6
tp360
(dp361
g7
F0.5
sg8
F0.5
sg9
F0.5
sss(I40
I50
tp362
(dp363
(I0
F0.8
tp364
(dp365
g7
F0.5
sg8
F0.5
sg9
F0.5
ss(F1.6
F2.4
tp366
(dp367
g7
F0.5
sg8
F0.5
sg9
F0.5
ss(F0.8
F1.6
tp368
(dp369
g7
F0.5
sg8
F0.5
sg9
F0.5
ssss.