(dp0
S'none'
p1
(dp2
(I70
I100
tp3
(dp4
(I0
F0.8
tp5
(dp6
S'c'
p7
F0.5
sS'b'
p8
F0.5
sS'other'
p9
F0.5
ss(F1.6
F2.4
tp10
(dp11
g7
F0.5
sg8
F0.5
sg9
F0.5
ss(F0.8
F1.6
tp12
(dp13
g7
F0.5
sg8
F0.5
sg9
F0.5
sss(I600
I1000
tp14
(dp15
(I0
F0.8
tp16
(dp17
g7
F0.5
sg8
F0.5
sg9
F0.5
ss(F1.6
F2.4
tp18
(dp19
g7
F0.5
sg8
F0.5
sg9
F0.5
ss(F0.8
F1.6
tp20
(dp21
g7
F0.5
sg8
F0.5
sg9
F0.5
sss(I200
I300
tp22
(dp23
(I0
F0.8
tp24
(dp25
g7
F0.5
sg8
F0.5
sg9
F0.5
ss(F1.6
F2.4
tp26
(dp27
g7
F0.5
sg8
F0.5
sg9
F0.5
ss(F0.8
F1.6
tp28
(dp29
g7
F0.5
sg8
F0.5
sg9
F0.5
sss(I100
I140
tp30
(dp31
(I0
F0.8
tp32
(dp33
g7
F0.5
sg8
F0.5
sg9
F0.5
ss(F1.6
F2.4
tp34
(dp35
g7
F0.5
sg8
F0.5
sg9
F0.5
ss(F0.8
F1.6
tp36
(dp37
g7
F0.5
sg8
F0.5
sg9
F0.5
sss(I1000
I-1
tp38
(dp39
(I0
F0.8
tp40
(dp41
g7
F0.5
sg8
F0.5
sg9
F0.5
ss(F1.6
F2.4
tp42
(dp43
g7
F0.5
sg8
F0.5
sg9
F0.5
ss(F0.8
F1.6
tp44
(dp45
g7
F0.5
sg8
F0.5
sg9
F0.5
sss(I50
I70
tp46
(dp47
(I0
F0.8
tp48
(dp49
g7
F0.5
sg8
F0.5
sg9
F0.5
ss(F1.6
F2.4
tp50
(dp51
g7
F0.5
sg8
F0.5
sg9
F0.5
ss(F0.8
F1.6
tp52
(dp53
g7
F0.5
sg8
F0.5
sg9
F0.5
sss(I300
I600
tp54
(dp55
(I0
F0.8
tp56
(dp57
g7
F0.5
sg8
F0.5
sg9
F0.5
ss(F1.6
F2.4
tp58
(dp59
g7
F0.5
sg8
F0.5
sg9
F0.5
ss(F0.8
F1.6
tp60
(dp61
g7
F0.5
sg8
F0.5
sg9
F0.5
sss(I30
I50
tp62
(dp63
(I0
F0.8
tp64
(dp65
g7
F0.5
sg8
F0.5
sg9
F0.5
ss(F1.6
F2.4
tp66
(dp67
g7
F0.5
sg8
F0.5
sg9
F0.5
ss(F0.8
F1.6
tp68
(dp69
g7
F0.5
sg8
F0.5
sg9
F0.5
sss(I140
I200
tp70
(dp71
(I0
F0.8
tp72
(dp73
g7
F0.5
sg8
F0.5
sg9
F0.5
ss(F1.6
F2.4
tp74
(dp75
g7
F0.5
sg8
F0.5
sg9
F0.5
ss(F0.8
F1.6
tp76
(dp77
g7
F0.5
sg8
F0.5
sg9
F0.5
ssssS'TTJets'
p78
(dp79
(I70
I100
tp80
(dp81
(I0
F0.8
tp82
(dp83
g7
F0.13381797034021517
sg8
F0.6866159878123285
sg9
F0.009726680867660736
ss(F1.6
F2.4
tp84
(dp85
g7
F0.11704908510020332
sg8
F0.5661248033560566
sg9
F0.016856832382504756
ss(F0.8
F1.6
tp86
(dp87
g7
F0.12710803139088328
sg8
F0.6523479485563916
sg9
F0.011705082139550939
sss(I600
I1000
tp88
(dp89
(I0
F0.8
tp90
(dp91
g7
F0.107421875
sg8
F0.4593491450634308
sg9
F0.022588674548848785
ss(F1.6
F2.4
tp92
(dp93
g7
F0.1111111111111111
sg8
F0.4147058823529412
sg9
F0.03247816593886463
ss(F0.8
F1.6
tp94
(dp95
g7
F0.14077897700610043
sg8
F0.47440364513535244
sg9
F0.035667107001321
sss(I200
I300
tp96
(dp97
(I0
F0.8
tp98
(dp99
g7
F0.12765052356020942
sg8
F0.6398154498410126
sg9
F0.011583477803365504
ss(F1.6
F2.4
tp100
(dp101
g7
F0.12424058323207776
sg8
F0.4778132057924804
sg9
F0.02741922552713862
ss(F0.8
F1.6
tp102
(dp103
g7
F0.12955114129602205
sg8
F0.5914674582372818
sg9
F0.016689154814306887
sss(I100
I140
tp104
(dp105
(I0
F0.8
tp106
(dp107
g7
F0.13832072750816682
sg8
F0.6875728168416516
sg9
F0.010126651195394007
ss(F1.6
F2.4
tp108
(dp109
g7
F0.11810055865921788
sg8
F0.5549104297953693
sg9
F0.018658835364171792
ss(F0.8
F1.6
tp110
(dp111
g7
F0.1369459447395438
sg8
F0.6488993446479583
sg9
F0.012118451025056948
sss(I1000
I-1
tp112
(dp113
(I0
F0.8
tp114
(dp115
g7
F0.10830324909747292
sg8
F0.39537444933920707
sg9
F0.036677454153182305
ss(F1.6
F2.4
tp116
(dp117
g7
F0.16666666666666666
sg8
F0.42857142857142855
sg9
F0.009259259259259259
ss(F0.8
F1.6
tp118
(dp119
g7
F0.1415929203539823
sg8
F0.41810344827586204
sg9
F0.045658012533572066
sss(I50
I70
tp120
(dp121
(I0
F0.8
tp122
(dp123
g7
F0.12868953386103782
sg8
F0.6715691411935953
sg9
F0.008776700485719107
ss(F1.6
F2.4
tp124
(dp125
g7
F0.11066195048004042
sg8
F0.5621487387269638
sg9
F0.016059005738079522
ss(F0.8
F1.6
tp126
(dp127
g7
F0.12199940729032896
sg8
F0.637943224802913
sg9
F0.011850221995206476
sss(I300
I600
tp128
(dp129
(I0
F0.8
tp130
(dp131
g7
F0.1154979375368297
sg8
F0.5584102219602144
sg9
F0.014253096915229536
ss(F1.6
F2.4
tp132
(dp133
g7
F0.13462274990425124
sg8
F0.4519691325172964
sg9
F0.03664487616241598
ss(F0.8
F1.6
tp134
(dp135
g7
F0.13509213160190936
sg8
F0.5325165664971491
sg9
F0.02616360741711931
sss(I30
I50
tp136
(dp137
(I0
F0.8
tp138
(dp139
g7
F0.13545751633986927
sg8
F0.636797877045555
sg9
F0.01230624454883479
ss(F1.6
F2.4
tp140
(dp141
g7
F0.10877985797288574
sg8
F0.5227570964845638
sg9
F0.019305709011756766
ss(F0.8
F1.6
tp142
(dp143
g7
F0.12535337269636787
sg8
F0.6065860364584161
sg9
F0.015180773136060342
sss(I140
I200
tp144
(dp145
(I0
F0.8
tp146
(dp147
g7
F0.13502765734788458
sg8
F0.6724146380738345
sg9
F0.009870079065953493
ss(F1.6
F2.4
tp148
(dp149
g7
F0.12403993855606758
sg8
F0.5310616802552286
sg9
F0.023632656033792148
ss(F0.8
F1.6
tp150
(dp151
g7
F0.1395582329317269
sg8
F0.6334214002642008
sg9
F0.014403517323014791
ssssS'WJets'
p152
(dp153
(I70
I100
tp154
(dp155
(I0
F0.8
tp156
(dp157
g7
F0.1271186440677966
sg8
F0.6679197994987469
sg9
F0.007985417543733933
ss(F1.6
F2.4
tp158
(dp159
g7
F0.10990851694369283
sg8
F0.5622476446837147
sg9
F0.01714377761413844
ss(F0.8
F1.6
tp160
(dp161
g7
F0.13136507936507935
sg8
F0.6404862085086489
sg9
F0.010998229098704446
sss(I600
I1000
tp162
(dp163
(I0
F0.8
tp164
(dp165
g7
F0.1164123930954544
sg8
F0.5281959475954106
sg9
F0.024273018877846136
ss(F1.6
F2.4
tp166
(dp167
g7
F0.10151324085750316
sg8
F0.45475113122171945
sg9
F0.03689822294022617
ss(F0.8
F1.6
tp168
(dp169
g7
F0.13907098047508282
sg8
F0.5114048177360904
sg9
F0.041418655698155
sss(I200
I300
tp170
(dp171
(I0
F0.8
tp172
(dp173
g7
F0.1268042627815999
sg8
F0.6146662335553029
sg9
F0.010775006035872553
ss(F1.6
F2.4
tp174
(dp175
g7
F0.1281815040884487
sg8
F0.49773413897280966
sg9
F0.02885419734904271
ss(F0.8
F1.6
tp176
(dp177
g7
F0.13141025641025642
sg8
F0.5836875664187035
sg9
F0.017236139452090477
sss(I100
I140
tp178
(dp179
(I0
F0.8
tp180
(dp181
g7
F0.1327002374109709
sg8
F0.6620795107033639
sg9
F0.007814816074804509
ss(F1.6
F2.4
tp182
(dp183
g7
F0.1186096835271842
sg8
F0.5433734939759036
sg9
F0.01940402837466991
ss(F0.8
F1.6
tp184
(dp185
g7
F0.1295838992468206
sg8
F0.6228984532616005
sg9
F0.011516721459377072
sss(I1000
I-1
tp186
(dp187
(I0
F0.8
tp188
(dp189
g7
F0.12684983108613113
sg8
F0.5028415348693775
sg9
F0.03809454780114052
ss(F1.6
F2.4
tp190
(dp191
g7
F0.14467408585055644
sg8
F0.4473684210526316
sg9
F0.04884318766066838
ss(F0.8
F1.6
tp192
(dp193
g7
F0.16498232687808034
sg8
F0.5334439834024897
sg9
F0.06304556711913495
sss(I50
I70
tp194
(dp195
(I0
F0.8
tp196
(dp197
g7
F0.12380668257756564
sg8
F0.6662569832402234
sg9
F0.007940453378647095
ss(F1.6
F2.4
tp198
(dp199
g7
F0.10559676331759946
sg8
F0.5576723242119848
sg9
F0.016912970278508313
ss(F0.8
F1.6
tp200
(dp201
g7
F0.11633014523556501
sg8
F0.6319339065924802
sg9
F0.011699153917188709
sss(I300
I600
tp202
(dp203
(I0
F0.8
tp204
(dp205
g7
F0.11988464911628736
sg8
F0.5734448510193414
sg9
F0.014732299184596004
ss(F1.6
F2.4
tp206
(dp207
g7
F0.13615870153291254
sg8
F0.5011464133639043
sg9
F0.03897818440318694
ss(F0.8
F1.6
tp208
(dp209
g7
F0.13828005898083123
sg8
F0.5586769011632507
sg9
F0.026670443563168594
sss(I30
I50
tp210
(dp211
(I0
F0.8
tp212
(dp213
g7
F0.132447024311082
sg8
F0.6312828484713895
sg9
F0.01208134208491146
ss(F1.6
F2.4
tp214
(dp215
g7
F0.10518440936634997
sg8
F0.5196540880503144
sg9
F0.019858125789448438
ss(F0.8
F1.6
tp216
(dp217
g7
F0.12894417475728157
sg8
F0.5995600712265633
sg9
F0.01642882210363704
sss(I140
I200
tp218
(dp219
(I0
F0.8
tp220
(dp221
g7
F0.13616652211621855
sg8
F0.6391554702495201
sg9
F0.008536971798169583
ss(F1.6
F2.4
tp222
(dp223
g7
F0.12449747114511736
sg8
F0.5339766787293928
sg9
F0.02584199906875679
ss(F0.8
F1.6
tp224
(dp225
g7
F0.13288713769093755
sg8
F0.6144
sg9
F0.014085055308657994
ssss.