(dp0
S'TTJets'
p1
(dp2
(I670
I-1
tp3
(dp4
(I0
F0.8
tp5
(dp6
S'c'
p7
F0.11637931034482758
sS'b'
p8
F0.52
sS'other'
p9
F0.02992957746478873
ss(F1.6
F2.4
tp10
(dp11
g7
F0.08333333333333333
sg8
F0.5555555555555556
sg9
F0.015
ss(F0.8
F1.6
tp12
(dp13
g7
F0.15315315315315314
sg8
F0.49714285714285716
sg9
F0.03798882681564246
sss(I210
I260
tp14
(dp15
(I0
F0.8
tp16
(dp17
g7
F0.1193021947101857
sg8
F0.7020659040464402
sg9
F0.011421319796954314
ss(F1.6
F2.4
tp18
(dp19
g7
F0.10141509433962265
sg8
F0.5412979351032449
sg9
F0.01534944480731548
ss(F0.8
F1.6
tp20
(dp21
g7
F0.10749774164408311
sg8
F0.6559104379321699
sg9
F0.015378982057854266
sss(I80
I100
tp22
(dp23
(I0
F0.8
tp24
(dp25
g7
F0.11456023651145603
sg8
F0.7359562381653693
sg9
F0.00795593635250918
ss(F1.6
F2.4
tp26
(dp27
g7
F0.11021505376344086
sg8
F0.6206365503080082
sg9
F0.011170212765957447
ss(F0.8
F1.6
tp28
(dp29
g7
F0.11161217587373168
sg8
F0.6994962654160153
sg9
F0.008774583963691377
sss(I500
I670
tp30
(dp31
(I0
F0.8
tp32
(dp33
g7
F0.13186813186813187
sg8
F0.609286523216308
sg9
F0.023278850916295196
ss(F1.6
F2.4
tp34
(dp35
g7
F0.11290322580645161
sg8
F0.3488372093023256
sg9
F0.01749271137026239
ss(F0.8
F1.6
tp36
(dp37
g7
F0.13986013986013987
sg8
F0.5194174757281553
sg9
F0.03180011357183418
sss(I400
I500
tp38
(dp39
(I0
F0.8
tp40
(dp41
g7
F0.14856429463171036
sg8
F0.6161242603550295
sg9
F0.0218209179834462
ss(F1.6
F2.4
tp42
(dp43
g7
F0.08411214953271028
sg8
F0.5612244897959183
sg9
F0.013032145960034752
ss(F0.8
F1.6
tp44
(dp45
g7
F0.1286031042128603
sg8
F0.5577812018489985
sg9
F0.02171985815602837
sss(I30
I40
tp46
(dp47
(I0
F0.8
tp48
(dp49
g7
F0.13074770091963214
sg8
F0.6656419529837251
sg9
F0.009569630961192767
ss(F1.6
F2.4
tp50
(dp51
g7
F0.1111111111111111
sg8
F0.5701990317374933
sg9
F0.016374680869794878
ss(F0.8
F1.6
tp52
(dp53
g7
F0.12896825396825398
sg8
F0.6338212232096184
sg9
F0.011120034595663186
sss(I260
I320
tp54
(dp55
(I0
F0.8
tp56
(dp57
g7
F0.1359816653934301
sg8
F0.6908136482939633
sg9
F0.01315002988643156
ss(F1.6
F2.4
tp58
(dp59
g7
F0.09701492537313433
sg8
F0.5163551401869159
sg9
F0.011226252158894647
ss(F0.8
F1.6
tp60
(dp61
g7
F0.10225763612217796
sg8
F0.6135558927668184
sg9
F0.015714642055375407
sss(I70
I80
tp62
(dp63
(I0
F0.8
tp64
(dp65
g7
F0.10919920582395765
sg8
F0.7347026101839966
sg9
F0.007480314960629921
ss(F1.6
F2.4
tp66
(dp67
g7
F0.11162790697674418
sg8
F0.643362831858407
sg9
F0.010944700460829493
ss(F0.8
F1.6
tp68
(dp69
g7
F0.11684518013631938
sg8
F0.7089773100953634
sg9
F0.0077834179357022
sss(I320
I400
tp70
(dp71
(I0
F0.8
tp72
(dp73
g7
F0.12095933263816476
sg8
F0.6643923240938167
sg9
F0.013445821249670446
ss(F1.6
F2.4
tp74
(dp75
g7
F0.062146892655367235
sg8
F0.49377593360995853
sg9
F0.017419706042460535
ss(F0.8
F1.6
tp76
(dp77
g7
F0.10580204778156997
sg8
F0.594383775351014
sg9
F0.016244314489928524
sss(I50
I60
tp78
(dp79
(I0
F0.8
tp80
(dp81
g7
F0.12753774076002083
sg8
F0.7223746081504702
sg9
F0.006788138620936048
ss(F1.6
F2.4
tp82
(dp83
g7
F0.12884333821376281
sg8
F0.6113416320885201
sg9
F0.012139338494018296
ss(F0.8
F1.6
tp84
(dp85
g7
F0.12371134020618557
sg8
F0.6732531500572738
sg9
F0.008130986856760971
sss(I100
I120
tp86
(dp87
(I0
F0.8
tp88
(dp89
g7
F0.12545454545454546
sg8
F0.7414737366193677
sg9
F0.009114183307731696
ss(F1.6
F2.4
tp90
(dp91
g7
F0.0990990990990991
sg8
F0.6403394255874674
sg9
F0.012192262602579133
ss(F0.8
F1.6
tp92
(dp93
g7
F0.11610738255033556
sg8
F0.7013574660633484
sg9
F0.006263326226012793
sss(I160
I210
tp94
(dp95
(I0
F0.8
tp96
(dp97
g7
F0.1357750647428783
sg8
F0.7192379762648344
sg9
F0.008183453237410073
ss(F1.6
F2.4
tp98
(dp99
g7
F0.10666666666666667
sg8
F0.5710344827586207
sg9
F0.01669919757102581
ss(F0.8
F1.6
tp100
(dp101
g7
F0.11843640606767794
sg8
F0.6803950801341782
sg9
F0.010771572415408031
sss(I120
I160
tp102
(dp103
(I0
F0.8
tp104
(dp105
g7
F0.11435674331883157
sg8
F0.738758375716477
sg9
F0.007722559885591705
ss(F1.6
F2.4
tp106
(dp107
g7
F0.11425061425061425
sg8
F0.5987261146496815
sg9
F0.014617368873602751
ss(F0.8
F1.6
tp108
(dp109
g7
F0.10962690004606172
sg8
F0.6907775768535263
sg9
F0.008367386651099436
sss(I60
I70
tp110
(dp111
(I0
F0.8
tp112
(dp113
g7
F0.10309278350515463
sg8
F0.7251035298757641
sg9
F0.006535235813092255
ss(F1.6
F2.4
tp114
(dp115
g7
F0.13043478260869565
sg8
F0.6111111111111112
sg9
F0.008918094344050692
ss(F0.8
F1.6
tp116
(dp117
g7
F0.10512129380053908
sg8
F0.6932038834951456
sg9
F0.0071298755766811125
sss(I40
I50
tp118
(dp119
(I0
F0.8
tp120
(dp121
g7
F0.1125765426283561
sg8
F0.6974292583687812
sg9
F0.0077981000992485465
ss(F1.6
F2.4
tp122
(dp123
g7
F0.14403778040141677
sg8
F0.609667673716012
sg9
F0.015309489243764022
ss(F0.8
F1.6
tp124
(dp125
g7
F0.11994784876140809
sg8
F0.6791233492554088
sg9
F0.010873317224715223
ssssS'WJets'
p126
(dp127
(I670
I-1
tp128
(dp129
(I0
F0.8
tp130
(dp131
g7
F0.15707196029776674
sg8
F0.5647226173541963
sg9
F0.03604601619088198
ss(F1.6
F2.4
tp132
(dp133
g7
F0.10091743119266056
sg8
F0.5
sg9
F0.024361948955916472
ss(F0.8
F1.6
tp134
(dp135
g7
F0.12831241283124128
sg8
F0.547085201793722
sg9
F0.04330040905916392
sss(I210
I260
tp136
(dp137
(I0
F0.8
tp138
(dp139
g7
F0.13131313131313133
sg8
F0.663895486935867
sg9
F0.008990948302047263
ss(F1.6
F2.4
tp140
(dp141
g7
F0.10476190476190476
sg8
F0.4473684210526316
sg9
F0.016360263113509868
ss(F0.8
F1.6
tp142
(dp143
g7
F0.10712074303405572
sg8
F0.6170634920634921
sg9
F0.01277981277981278
sss(I80
I100
tp144
(dp145
(I0
F0.8
tp146
(dp147
g7
F0.12805944055944055
sg8
F0.7103004291845494
sg9
F0.0050048123195380175
ss(F1.6
F2.4
tp148
(dp149
g7
F0.08124253285543608
sg8
F0.6194029850746269
sg9
F0.010145772594752186
ss(F0.8
F1.6
tp150
(dp151
g7
F0.10541813898704358
sg8
F0.6841294298921418
sg9
F0.007773671466802599
sss(I500
I670
tp152
(dp153
(I0
F0.8
tp154
(dp155
g7
F0.14063472308649658
sg8
F0.670774647887324
sg9
F0.02472024415055951
ss(F1.6
F2.4
tp156
(dp157
g7
F0.1497005988023952
sg8
F0.4878048780487805
sg9
F0.023536511768255886
ss(F0.8
F1.6
tp158
(dp159
g7
F0.14845605700712589
sg8
F0.583941605839416
sg9
F0.02398348157560356
sss(I400
I500
tp160
(dp161
(I0
F0.8
tp162
(dp163
g7
F0.13789107763615296
sg8
F0.6009693053311793
sg9
F0.01815617838885951
ss(F1.6
F2.4
tp164
(dp165
g7
F0.10408921933085502
sg8
F0.4444444444444444
sg9
F0.023154848046309694
ss(F0.8
F1.6
tp166
(dp167
g7
F0.1220472440944882
sg8
F0.590443686006826
sg9
F0.025412173050700385
sss(I30
I40
tp168
(dp169
(I0
F0.8
tp170
(dp171
g7
F0.12622673434856177
sg8
F0.6569148936170213
sg9
F0.007551883712347046
ss(F1.6
F2.4
tp172
(dp173
g7
F0.09921875
sg8
F0.5946969696969697
sg9
F0.012420660976143576
ss(F0.8
F1.6
tp174
(dp175
g7
F0.12072791833111407
sg8
F0.6278026905829597
sg9
F0.00876485643165165
sss(I260
I320
tp176
(dp177
(I0
F0.8
tp178
(dp179
g7
F0.13154362416107382
sg8
F0.6437414030261348
sg9
F0.011583528624037496
ss(F1.6
F2.4
tp180
(dp181
g7
F0.1150278293135436
sg8
F0.45454545454545453
sg9
F0.01794616151545364
ss(F0.8
F1.6
tp182
(dp183
g7
F0.1092896174863388
sg8
F0.6391752577319587
sg9
F0.016130477641365715
sss(I70
I80
tp184
(dp185
(I0
F0.8
tp186
(dp187
g7
F0.1262509622786759
sg8
F0.6795366795366795
sg9
F0.004732254047322541
ss(F1.6
F2.4
tp188
(dp189
g7
F0.1115702479338843
sg8
F0.5854922279792746
sg9
F0.00806606491261763
ss(F0.8
F1.6
tp190
(dp191
g7
F0.11180773249738767
sg8
F0.6742424242424242
sg9
F0.007010353753235548
sss(I320
I400
tp192
(dp193
(I0
F0.8
tp194
(dp195
g7
F0.11960871498443752
sg8
F0.6580976863753213
sg9
F0.015238622982614117
ss(F1.6
F2.4
tp196
(dp197
g7
F0.11160714285714286
sg8
F0.38513513513513514
sg9
F0.017844564451749236
ss(F0.8
F1.6
tp198
(dp199
g7
F0.12324929971988796
sg8
F0.5657015590200446
sg9
F0.01868352974992814
sss(I50
I60
tp200
(dp201
(I0
F0.8
tp202
(dp203
g7
F0.11168091168091168
sg8
F0.708171206225681
sg9
F0.006024756271223573
ss(F1.6
F2.4
tp204
(dp205
g7
F0.11428571428571428
sg8
F0.5874125874125874
sg9
F0.009289419712872482
ss(F0.8
F1.6
tp206
(dp207
g7
F0.10142630744849446
sg8
F0.6787658802177858
sg9
F0.006902866802845672
sss(I100
I120
tp208
(dp209
(I0
F0.8
tp210
(dp211
g7
F0.12032085561497326
sg8
F0.6887417218543046
sg9
F0.0060441593684470215
ss(F1.6
F2.4
tp212
(dp213
g7
F0.09957325746799431
sg8
F0.5236051502145923
sg9
F0.009393171313553004
ss(F0.8
F1.6
tp214
(dp215
g7
F0.11482889733840304
sg8
F0.6587837837837838
sg9
F0.00650419891322246
sss(I160
I210
tp216
(dp217
(I0
F0.8
tp218
(dp219
g7
F0.12649800266311584
sg8
F0.6578699340245052
sg9
F0.009133245919428493
ss(F1.6
F2.4
tp220
(dp221
g7
F0.11564625850340136
sg8
F0.5017921146953405
sg9
F0.015680684248039915
ss(F0.8
F1.6
tp222
(dp223
g7
F0.12426900584795321
sg8
F0.6147426981919333
sg9
F0.011724794667301511
sss(I120
I160
tp224
(dp225
(I0
F0.8
tp226
(dp227
g7
F0.1237721021611002
sg8
F0.6720142602495544
sg9
F0.0076351545503058164
ss(F1.6
F2.4
tp228
(dp229
g7
F0.12525667351129363
sg8
F0.5425219941348973
sg9
F0.013990941117262205
ss(F0.8
F1.6
tp230
(dp231
g7
F0.11730072463768115
sg8
F0.6730769230769231
sg9
F0.00842220399234345
sss(I60
I70
tp232
(dp233
(I0
F0.8
tp234
(dp235
g7
F0.10694050991501416
sg8
F0.6892307692307692
sg9
F0.006389117889530091
ss(F1.6
F2.4
tp236
(dp237
g7
F0.0873440285204991
sg8
F0.5720720720720721
sg9
F0.009309542280837859
ss(F0.8
F1.6
tp238
(dp239
g7
F0.10516772438803264
sg8
F0.6595744680851063
sg9
F0.007293354943273906
sss(I40
I50
tp240
(dp241
(I0
F0.8
tp242
(dp243
g7
F0.1252371916508539
sg8
F0.6941694169416942
sg9
F0.008534199242329628
ss(F1.6
F2.4
tp244
(dp245
g7
F0.12570781426953567
sg8
F0.5842391304347826
sg9
F0.013583840522183999
ss(F0.8
F1.6
tp246
(dp247
g7
F0.12608948285880303
sg8
F0.6411764705882353
sg9
F0.008021819348628268
ssssS'none'
p248
(dp249
(I670
I-1
tp250
(dp251
(I0
F0.8
tp252
(dp253
g7
F0.5
sg8
F0.5
sg9
F0.5
ss(F1.6
F2.4
tp254
(dp255
g7
F0.5
sg8
F0.5
sg9
F0.5
ss(F0.8
F1.6
tp256
(dp257
g7
F0.5
sg8
F0.5
sg9
F0.5
sss(I210
I260
tp258
(dp259
(I0
F0.8
tp260
(dp261
g7
F0.5
sg8
F0.5
sg9
F0.5
ss(F1.6
F2.4
tp262
(dp263
g7
F0.5
sg8
F0.5
sg9
F0.5
ss(F0.8
F1.6
tp264
(dp265
g7
F0.5
sg8
F0.5
sg9
F0.5
sss(I80
I100
tp266
(dp267
(I0
F0.8
tp268
(dp269
g7
F0.5
sg8
F0.5
sg9
F0.5
ss(F1.6
F2.4
tp270
(dp271
g7
F0.5
sg8
F0.5
sg9
F0.5
ss(F0.8
F1.6
tp272
(dp273
g7
F0.5
sg8
F0.5
sg9
F0.5
sss(I500
I670
tp274
(dp275
(I0
F0.8
tp276
(dp277
g7
F0.5
sg8
F0.5
sg9
F0.5
ss(F1.6
F2.4
tp278
(dp279
g7
F0.5
sg8
F0.5
sg9
F0.5
ss(F0.8
F1.6
tp280
(dp281
g7
F0.5
sg8
F0.5
sg9
F0.5
sss(I400
I500
tp282
(dp283
(I0
F0.8
tp284
(dp285
g7
F0.5
sg8
F0.5
sg9
F0.5
ss(F1.6
F2.4
tp286
(dp287
g7
F0.5
sg8
F0.5
sg9
F0.5
ss(F0.8
F1.6
tp288
(dp289
g7
F0.5
sg8
F0.5
sg9
F0.5
sss(I30
I40
tp290
(dp291
(I0
F0.8
tp292
(dp293
g7
F0.5
sg8
F0.5
sg9
F0.5
ss(F1.6
F2.4
tp294
(dp295
g7
F0.5
sg8
F0.5
sg9
F0.5
ss(F0.8
F1.6
tp296
(dp297
g7
F0.5
sg8
F0.5
sg9
F0.5
sss(I260
I320
tp298
(dp299
(I0
F0.8
tp300
(dp301
g7
F0.5
sg8
F0.5
sg9
F0.5
ss(F1.6
F2.4
tp302
(dp303
g7
F0.5
sg8
F0.5
sg9
F0.5
ss(F0.8
F1.6
tp304
(dp305
g7
F0.5
sg8
F0.5
sg9
F0.5
sss(I70
I80
tp306
(dp307
(I0
F0.8
tp308
(dp309
g7
F0.5
sg8
F0.5
sg9
F0.5
ss(F1.6
F2.4
tp310
(dp311
g7
F0.5
sg8
F0.5
sg9
F0.5
ss(F0.8
F1.6
tp312
(dp313
g7
F0.5
sg8
F0.5
sg9
F0.5
sss(I320
I400
tp314
(dp315
(I0
F0.8
tp316
(dp317
g7
F0.5
sg8
F0.5
sg9
F0.5
ss(F1.6
F2.4
tp318
(dp319
g7
F0.5
sg8
F0.5
sg9
F0.5
ss(F0.8
F1.6
tp320
(dp321
g7
F0.5
sg8
F0.5
sg9
F0.5
sss(I50
I60
tp322
(dp323
(I0
F0.8
tp324
(dp325
g7
F0.5
sg8
F0.5
sg9
F0.5
ss(F1.6
F2.4
tp326
(dp327
g7
F0.5
sg8
F0.5
sg9
F0.5
ss(F0.8
F1.6
tp328
(dp329
g7
F0.5
sg8
F0.5
sg9
F0.5
sss(I100
I120
tp330
(dp331
(I0
F0.8
tp332
(dp333
g7
F0.5
sg8
F0.5
sg9
F0.5
ss(F1.6
F2.4
tp334
(dp335
g7
F0.5
sg8
F0.5
sg9
F0.5
ss(F0.8
F1.6
tp336
(dp337
g7
F0.5
sg8
F0.5
sg9
F0.5
sss(I160
I210
tp338
(dp339
(I0
F0.8
tp340
(dp341
g7
F0.5
sg8
F0.5
sg9
F0.5
ss(F1.6
F2.4
tp342
(dp343
g7
F0.5
sg8
F0.5
sg9
F0.5
ss(F0.8
F1.6
tp344
(dp345
g7
F0.5
sg8
F0.5
sg9
F0.5
sss(I120
I160
tp346
(dp347
(I0
F0.8
tp348
(dp349
g7
F0.5
sg8
F0.5
sg9
F0.5
ss(F1.6
F2.4
tp350
(dp351
g7
F0.5
sg8
F0.5
sg9
F0.5
ss(F0.8
F1.6
tp352
(dp353
g7
F0.5
sg8
F0.5
sg9
F0.5
sss(I60
I70
tp354
(dp355
(I0
F0.8
tp356
(dp357
g7
F0.5
sg8
F0.5
sg9
F0.5
ss(F1.6
F2.4
tp358
(dp359
g7
F0.5
sg8
F0.5
sg9
F0.5
ss(F0.8
F1.6
tp360
(dp361
g7
F0.5
sg8
F0.5
sg9
F0.5
sss(I40
I50
tp362
(dp363
(I0
F0.8
tp364
(dp365
g7
F0.5
sg8
F0.5
sg9
F0.5
ss(F1.6
F2.4
tp366
(dp367
g7
F0.5
sg8
F0.5
sg9
F0.5
ss(F0.8
F1.6
tp368
(dp369
g7
F0.5
sg8
F0.5
sg9
F0.5
ssss.