(dp0
S'signal_inclusive'
p1
(dp2
(I100
I120
tp3
(dp4
(I0
F0.8
tp5
(dp6
S'c'
p7
F0.20892915030796383
sS'b'
p8
F0.6880859497892153
sS'other'
p9
F0.007833986543123174
ss(F0.8
F1.6
tp10
(dp11
g7
F0.19931876589206315
sg8
F0.6655018443020773
sg9
F0.007360389345773355
ss(F1.6
F2.4
tp12
(dp13
g7
F0.17661554594311182
sg8
F0.6140969162995594
sg9
F0.009831521621211136
sss(I30
I40
tp14
(dp15
(I0
F0.8
tp16
(dp17
g7
F0.22284342254368417
sg8
F0.6843545053816106
sg9
F0.014322340816325758
ss(F0.8
F1.6
tp18
(dp19
g7
F0.19843478306481435
sg8
F0.6597466088273772
sg9
F0.01288183264099883
ss(F1.6
F2.4
tp20
(dp21
g7
F0.16011244197442473
sg8
F0.5767858345115465
sg9
F0.014891981774261416
sss(I80
I100
tp22
(dp23
(I0
F0.8
tp24
(dp25
g7
F0.2118024232577692
sg8
F0.7000780325723059
sg9
F0.008444649301706339
ss(F0.8
F1.6
tp26
(dp27
g7
F0.20032857998413753
sg8
F0.685241156187476
sg9
F0.007964027038828604
ss(F1.6
F2.4
tp28
(dp29
g7
F0.18056822624788219
sg8
F0.6207906295754027
sg9
F0.011355142927965516
sss(I670
I-1
tp30
(dp31
(I0
F0.8
tp32
(dp33
g7
F0.14463348036126863
sg8
F0.6748792635073951
sg9
F0.012721704394141145
ss(F0.8
F1.6
tp34
(dp35
g7
F0.13800823468862583
sg8
F0.632725430597771
sg9
F0.009138472883052128
ss(F1.6
F2.4
tp36
(dp37
g7
F0.10237510237510238
sg8
F0.4426877470355731
sg9
F0.0038454323766647907
sss(I500
I670
tp38
(dp39
(I0
F0.8
tp40
(dp41
g7
F0.15698290594948044
sg8
F0.6753294627223297
sg9
F0.011937786366611601
ss(F0.8
F1.6
tp42
(dp43
g7
F0.15423525501134508
sg8
F0.6469375128892555
sg9
F0.00837804224406642
ss(F1.6
F2.4
tp44
(dp45
g7
F0.11721698113207547
sg8
F0.5053619302949062
sg9
F0.0060861882791793465
sss(I210
I260
tp46
(dp47
(I0
F0.8
tp48
(dp49
g7
F0.19269360647050404
sg8
F0.6364020865642183
sg9
F0.008384029338845581
ss(F0.8
F1.6
tp50
(dp51
g7
F0.18257217017555286
sg8
F0.6201802219901767
sg9
F0.0070051657543660105
ss(F1.6
F2.4
tp52
(dp53
g7
F0.1532360214729477
sg8
F0.5367143136870961
sg9
F0.008632924689605847
sss(I60
I70
tp54
(dp55
(I0
F0.8
tp56
(dp57
g7
F0.2082461079711283
sg8
F0.6994410098841298
sg9
F0.008303608472042104
ss(F0.8
F1.6
tp58
(dp59
g7
F0.19453828492756045
sg8
F0.6909162051529015
sg9
F0.007913128398445506
ss(F1.6
F2.4
tp60
(dp61
g7
F0.171518728452054
sg8
F0.6299206705582997
sg9
F0.011521564509542592
sss(I320
I400
tp62
(dp63
(I0
F0.8
tp64
(dp65
g7
F0.17970630549904967
sg8
F0.6216107953834213
sg9
F0.009909534056475341
ss(F0.8
F1.6
tp66
(dp67
g7
F0.17340808970764918
sg8
F0.6073026785135223
sg9
F0.007870945150097093
ss(F1.6
F2.4
tp68
(dp69
g7
F0.15517879617975863
sg8
F0.5293845441925035
sg9
F0.010404761904761905
sss(I50
I60
tp70
(dp71
(I0
F0.8
tp72
(dp73
g7
F0.21234279401767506
sg8
F0.7067953020134228
sg9
F0.009194523045666859
ss(F0.8
F1.6
tp74
(dp75
g7
F0.1949745591412839
sg8
F0.6803859986829441
sg9
F0.008645419826572912
ss(F1.6
F2.4
tp76
(dp77
g7
F0.16411219944873104
sg8
F0.612353318932804
sg9
F0.01122318808250786
sss(I400
I500
tp78
(dp79
(I0
F0.8
tp80
(dp81
g7
F0.1628536515288408
sg8
F0.6441343607747464
sg9
F0.010129393471867316
ss(F0.8
F1.6
tp82
(dp83
g7
F0.15934604664485352
sg8
F0.6257747933884298
sg9
F0.007487235452313209
ss(F1.6
F2.4
tp84
(dp85
g7
F0.1228000529310573
sg8
F0.5376106194690266
sg9
F0.00633764561495282
sss(I160
I210
tp86
(dp87
(I0
F0.8
tp88
(dp89
g7
F0.19430829494249
sg8
F0.6518785743587269
sg9
F0.007841147915964996
ss(F0.8
F1.6
tp90
(dp91
g7
F0.18231566988938144
sg8
F0.6319263462990476
sg9
F0.006542827507933031
ss(F1.6
F2.4
tp92
(dp93
g7
F0.15545254556882465
sg8
F0.5549410414275279
sg9
F0.00747194165592048
sss(I120
I160
tp94
(dp95
(I0
F0.8
tp96
(dp97
g7
F0.20879612781557128
sg8
F0.6743934412584793
sg9
F0.008380799302983029
ss(F0.8
F1.6
tp98
(dp99
g7
F0.20246811318503127
sg8
F0.6605060462928484
sg9
F0.007835635907502088
ss(F1.6
F2.4
tp100
(dp101
g7
F0.18050627411629616
sg8
F0.6057310186153524
sg9
F0.011409361461426716
sss(I70
I80
tp102
(dp103
(I0
F0.8
tp104
(dp105
g7
F0.21238397149013757
sg8
F0.7032766608666485
sg9
F0.008541430277918321
ss(F0.8
F1.6
tp106
(dp107
g7
F0.19884843444934558
sg8
F0.6800834927813533
sg9
F0.007658512361825006
ss(F1.6
F2.4
tp108
(dp109
g7
F0.1676165029916291
sg8
F0.6198830409356725
sg9
F0.010236326730279398
sss(I40
I50
tp110
(dp111
(I0
F0.8
tp112
(dp113
g7
F0.2038489513066207
sg8
F0.6922123154081917
sg9
F0.009188483140650348
ss(F0.8
F1.6
tp114
(dp115
g7
F0.1874102732559554
sg8
F0.6696596853095022
sg9
F0.009118691051688584
ss(F1.6
F2.4
tp116
(dp117
g7
F0.16647149926340044
sg8
F0.6100564162263813
sg9
F0.013834068820933573
sss(I260
I320
tp118
(dp119
(I0
F0.8
tp120
(dp121
g7
F0.18817058361311523
sg8
F0.6230649485427657
sg9
F0.00901163958799341
ss(F0.8
F1.6
tp122
(dp123
g7
F0.18072539381848163
sg8
F0.6118033123109266
sg9
F0.007393544232472028
ss(F1.6
F2.4
tp124
(dp125
g7
F0.15284537175348142
sg8
F0.5405405405405406
sg9
F0.009308400707636857
ssss.