(dp0
I775
(dp1
I705
F0.45722658451365666
sI745
F0.39561130102553793
sI715
F0.43946456938982786
sI755
F0.38838479754284777
sI725
F0.42363827549947425
sI695
F0.48280107935343586
sI765
F0.38377177760810716
sI735
F0.4040708727281945
ssI650
(dp2
I640
F0.36668883648749423
sI610
F0.38640153944836436
sI580
F0.435123920601099
sI620
F0.37473280350781035
sI590
F0.41924398625429554
sI630
F0.3652926979319483
sI600
F0.39673140079129066
sI570
F0.4630599185573008
ssI525
(dp3
I515
F0.33521237643249185
sI485
F0.3553241141480102
sI455
F0.4100239915451018
sI495
F0.34363499394867486
sI465
F0.3907385287498928
sI505
F0.3350663626438105
sI475
F0.3679108197089566
sI445
F0.43111698688011035
ssI400
(dp4
I320
F0.3786567637929159
sI390
F0.28993696302673805
sI360
F0.30987974220981995
sI330
F0.36080458203795046
sI370
F0.29911833381490477
sI340
F0.34142195879113885
sI380
F0.29203500503812313
sI350
F0.32424263023134614
ssI275
(dp5
I225
F0.2530659805801349
sI195
F0.29199204822653874
sI265
F0.222202930715392
sI235
F0.24028415568174658
sI205
F0.280159542594627
sI245
F0.23064787507916223
sI215
F0.2665648360585781
sI255
F0.22467385469905948
ssI800
(dp6
I770
F0.3957045328020159
sI740
F0.44511833902225734
sI780
F0.39469738059534826
sI750
F0.42120600247808726
sI720
F0.48519231770155624
sI790
F0.38545819230287076
sI760
F0.4100748723410921
sI730
F0.4657610978854502
ssI675
(dp7
I645
F0.37509843856076036
sI615
F0.42689799651824967
sI655
F0.3717515923566879
sI625
F0.4051291202488082
sI595
F0.46656954840006026
sI665
F0.36617452886808305
sI635
F0.3852681764004768
sI605
F0.4486905330951722
ssI550
(dp8
I480
F0.4158698357769481
sI520
F0.3515197540578623
sI490
F0.39744717034002297
sI530
F0.3436460765584094
sI500
F0.3747400952132071
sI470
F0.4377122352529319
sI540
F0.3403702435388675
sI510
F0.3599811793114469
ssI425
(dp9
I385
F0.3199433370434079
sI355
F0.3720065369062834
sI395
F0.30926343185828187
sI365
F0.35314919259270133
sI405
F0.3025323902149105
sI375
F0.3361059402907703
sI345
F0.38956329391061945
sI415
F0.30077107788657326
ssI300
(dp10
I290
F0.23834980758664562
sI260
F0.25751685417154035
sI230
F0.30087031412900594
sI270
F0.24689719714614694
sI240
F0.2847264530934815
sI280
F0.24060703678294257
sI250
F0.2693670494141042
sI220
F0.3131530064818944
ssI700
(dp11
I640
F0.42870304748405386
sI680
F0.3762868532877732
sI650
F0.40696956082219476
sI620
F0.47130724901425536
sI690
F0.3746087793917021
sI660
F0.3917032793650023
sI630
F0.4480182347726985
sI670
F0.3799135446685879
ssI575
(dp12
I545
F0.359294817809219
sI515
F0.40253887007824973
sI555
F0.349856722861077
sI525
F0.3839144359175781
sI495
F0.44247025465723294
sI565
F0.34850277489784715
sI535
F0.3705341634823504
sI505
F0.4229343711116406
ssI450
(dp13
I420
F0.31898291525505906
sI390
F0.36389297283263344
sI430
F0.31208043973101807
sI400
F0.3464708390302709
sI370
F0.4025224492681892
sI440
F0.3099118424919189
sI410
F0.3306641286343129
sI380
F0.38387381921109287
ssI325
(dp14
I295
F0.2610245018757256
sI265
F0.3014648089419377
sI305
F0.254868979513584
sI275
F0.28614406997307035
sI245
F0.3321502700595163
sI315
F0.2528612160997281
sI285
F0.27083001574747423
sI255
F0.3173066545912129
ssI725
(dp15
I705
F0.37883920505871727
sI675
F0.41030444964871193
sI645
F0.4758611410118407
sI715
F0.3804922515952598
sI685
F0.39839913572971913
sI655
F0.457186937516071
sI695
F0.38279321877522776
sI665
F0.4375427139494267
ssI600
(dp16
I580
F0.35591016186775193
sI550
F0.3912116477065292
sI520
F0.4502735327347327
sI590
F0.3531975049551125
sI560
F0.3772016222479722
sI530
F0.4288253016230025
sI570
F0.3623323887704128
sI540
F0.40819800124921923
ssI475
(dp17
I455
F0.3219399666924309
sI425
F0.35687534130536674
sI395
F0.4125934071643187
sI465
F0.3175373236435851
sI435
F0.3390883195846654
sI405
F0.3932542841580425
sI445
F0.3277771302016552
sI415
F0.37392335903626533
ssI350
(dp18
I320
F0.2743503201908516
sI290
F0.3162012576709372
sI330
F0.26816828444396973
sI300
F0.29942624977839305
sI270
F0.3497562929173545
sI340
F0.2662307442488039
sI310
F0.2860927275215674
sI280
F0.33322076144082924
ssI750
(dp19
I740
F0.38240906725264556
sI710
F0.39988473176120265
sI680
F0.46148102457552836
sI720
F0.38634061640862394
sI690
F0.4312775870524767
sI730
F0.38387648360490845
sI700
F0.41962136490794355
sI670
F0.4777745566990385
ssI625
(dp20
I545
F0.4555389548254965
sI615
F0.3573328706916493
sI585
F0.3767660308636059
sI555
F0.4345143701257793
sI595
F0.3686058861822044
sI565
F0.4158949776664125
sI605
F0.3596894882157577
sI575
F0.39335143658023825
ssI500
(dp21
I480
F0.3293083285948782
sI450
F0.3641662145053355
sI420
F0.4229059457965966
sI490
F0.3290376288827603
sI460
F0.34743071960171706
sI430
F0.4021398434237495
sI470
F0.3354286974184802
sI440
F0.37971654895472845
ssI375
(dp22
I355
F0.28119087122381653
sI325
F0.31324924638879126
sI295
F0.36490450527372076
sI365
F0.2790211809210302
sI335
F0.2978585777603666
sI305
F0.3477461357021865
sI345
F0.28753392215719725
sI315
F0.3298166604916822
ssI250
(dp23
I230
F0.20680292280454177
sI200
F0.23387685013524603
sI170
F0.2673736827437922
sI240
F0.2046304349403573
sI210
F0.2228200984353192
sI180
F0.2587282644208081
sI220
F0.21224944054965522
sI190
F0.2467782148956161
ss.