(dp0
S'sr1laY'
p1
F1.0062
sS'sr1laX'
p2
F1.00536
sS'sr2laX'
p3
F1.00585
sS'sr2laY'
p4
F1.00577
sS'sr2lbY'
p5
F1.00534
sS'sr2lbX'
p6
F1.0048
sS'sr2lcX'
p7
F1.007
sS'sr2lcY'
p8
F1.00847
sS'sr1vlaX'
p9
F1.01612
sS'sr1vlaY'
p10
F1.01612
sS'sr2vlbX'
p11
F1.01612
sS'sr2vlbY'
p12
F1.01612
sS'sr1vlbY'
p13
F1.01612
sS'sr1vlbX'
p14
F1.01612
sS'sr2vlaY'
p15
F1.01612
sS'sr2vlaX'
p16
F1.01612
sS'sr1lcY'
p17
F1.0062
sS'sr1lcX'
p18
F1.00821
sS'sr1lbX'
p19
F1.00587
sS'sr1lbY'
p20
F1.00587
s.