(dp0
S'CR2'
p1
F11.517963889845795
sS'SRL1c'
p2
F7.981220657276989
sS'SRL1b'
p3
F7.5778078484438405
sS'CR1b'
p4
F17.014566751764537
sS'CR1c'
p5
F13.957375679063933
sS'SRH1c'
p6
F5.785123966942152
sS'SRH2'
p7
F7.086167800453513
sS'CRTT2'
p8
F2.1895682743529488
sS'SR2'
p9
F8.466035073573885
sS'SRL2'
p10
F8.291457286432157
sS'CR1a'
p11
F20.68262478290418
sS'SRV2'
p12
F9.78532201697454
sS'SR1a'
p13
F9.99317095379012
sS'SR1b'
p14
F10.061601642710471
sS'SR1c'
p15
F1.6976556184316927
sS'SRV1a'
p16
F9.989858012170384
sS'SRH1b'
p17
F5.295315682281054
sS'SRH1a'
p18
F10.506424792139079
sS'SRV1b'
p19
F15.877437325905285
sS'SRV1c'
p20
F2.7231467473525006
sS'SRL1a'
p21
F9.471766848816031
s.