(dp0
S'CR2'
p1
F11.482923663502886
sS'SRL1c'
p2
F7.981220657276989
sS'SRL1b'
p3
F7.5778078484438405
sS'CR1b'
p4
F17.024470800180147
sS'CR1c'
p5
F13.993743482794574
sS'SRH1c'
p6
F5.494505494505497
sS'SRH2'
p7
F7.082152974504252
sS'CRTT2'
p8
F2.2308612978411246
sS'SR2'
p9
F8.445877847208216
sS'SRL2'
p10
F8.305369127516782
sS'CR1a'
p11
F20.677914806688346
sS'SRV2'
p12
F9.730538922155684
sS'SR1a'
p13
F9.99317095379012
sS'SR1b'
p14
F10.061601642710471
sS'SR1c'
p15
F1.696284329563813
sS'SRV1a'
p16
F9.939148073022297
sS'SRH1b'
p17
F5.295315682281054
sS'SRH1a'
p18
F10.506424792139079
sS'SRV1b'
p19
F15.877437325905285
sS'SRV1c'
p20
F2.7231467473525006
sS'SRL1a'
p21
F9.471766848816031
s.