(dp0
S'CR2'
p1
F6.565479937516039
sS'SRL1c'
p2
F4.1906327033689355
sS'SRL1b'
p3
F0.3127057274522671
sS'CR1b'
p4
F10.486239840296586
sS'CR1c'
p5
F12.639616168390644
sS'SRH1c'
p6
F2.9308323563892125
sS'SRH2'
p7
F3.979678238780704
sS'CRTT2'
p8
F0.3860152200286793
sS'SR2'
p9
F4.197735432201055
sS'SRL2'
p10
F4.40744368266407
sS'CR1a'
p11
F11.678118820261464
sS'SRV2'
p12
F4.228329809725151
sS'SR1a'
p13
F3.3243664165368725
sS'SR1b'
p14
F1.4842743282584947
sS'SR1c'
p15
F3.64663585002567
sS'SRV1a'
p16
F3.8331047426550247
sS'SRH1b'
p17
F1.9924759648878299
sS'SRH1a'
p18
F2.551847051198952
sS'SRV1b'
p19
F1.935064935064923
sS'SRV1c'
p20
F3.5635964912280604
sS'SRL1a'
p21
F3.6078517381291753
s.