(dp0
cnumpy.core.multiarray
scalar
p1
(cnumpy
dtype
p2
(S'S3'
p3
I0
I1
tp4
Rp5
(I3
S'|'
p6
NNNI3
I1
I0
tp7
bS'CR2'
p8
tp9
Rp10
F2.6002086815206105
sg1
(g2
(S'S5'
p11
I0
I1
tp12
Rp13
(I3
S'|'
p14
NNNI5
I1
I0
tp15
bS'SRL1c'
p16
tp17
Rp18
F2.3139745916515353
sg1
(g2
(S'S5'
p19
I0
I1
tp20
Rp21
(I3
S'|'
p22
NNNI5
I1
I0
tp23
bS'SRL1b'
p24
tp25
Rp26
F0.24911498623311212
sg1
(g2
(S'S4'
p27
I0
I1
tp28
Rp29
(I3
S'|'
p30
NNNI4
I1
I0
tp31
bS'CR1b'
p32
tp33
Rp34
F8.93353903716032
sg1
(g2
(S'S4'
p35
I0
I1
tp36
Rp37
(I3
S'|'
p38
NNNI4
I1
I0
tp39
bS'CR1c'
p40
tp41
Rp42
F9.64320154291225
sg1
(g2
(S'S5'
p43
I0
I1
tp44
Rp45
(I3
S'|'
p46
NNNI5
I1
I0
tp47
bS'SRH1c'
p48
tp49
Rp50
F1.2846865364851023
sg1
(g2
(S'S4'
p51
I0
I1
tp52
Rp53
(I3
S'|'
p54
NNNI4
I1
I0
tp55
bS'SRH2'
p56
tp57
Rp58
F1.9140704540826614
sg1
(g2
(S'S5'
p59
I0
I1
tp60
Rp61
(I3
S'|'
p62
NNNI5
I1
I0
tp63
bS'CRTT2'
p64
tp65
Rp66
F0.037525329597487556
sg1
(g2
(S'S3'
p67
I0
I1
tp68
Rp69
(I3
S'|'
p70
NNNI3
I1
I0
tp71
bS'SR2'
p72
tp73
Rp74
F2.0893470790377955
sg1
(g2
(S'S4'
p75
I0
I1
tp76
Rp77
(I3
S'|'
p78
NNNI4
I1
I0
tp79
bS'SRL2'
p80
tp81
Rp82
F2.2590361445783302
sg1
(g2
(S'S4'
p83
I0
I1
tp84
Rp85
(I3
S'|'
p86
NNNI4
I1
I0
tp87
bS'CR1a'
p88
tp89
Rp90
F9.298834658791533
sg1
(g2
(S'S4'
p91
I0
I1
tp92
Rp93
(I3
S'|'
p94
NNNI4
I1
I0
tp95
bS'SRV2'
p96
tp97
Rp98
F2.1220159151193574
sg1
(g2
(S'S4'
p99
I0
I1
tp100
Rp101
(I3
S'|'
p102
NNNI4
I1
I0
tp103
bS'SR1a'
p104
tp105
Rp106
F2.6383208234077915
sg1
(g2
(S'S4'
p107
I0
I1
tp108
Rp109
(I3
S'|'
p110
NNNI4
I1
I0
tp111
bS'SR1b'
p112
tp113
Rp114
F1.2290061252716922
sg1
(g2
(S'S4'
p115
I0
I1
tp116
Rp117
(I3
S'|'
p118
NNNI4
I1
I0
tp119
bS'SR1c'
p120
tp121
Rp122
F1.9960640989598044
sg1
(g2
(S'S5'
p123
I0
I1
tp124
Rp125
(I3
S'|'
p126
NNNI5
I1
I0
tp127
bS'SRV1a'
p128
tp129
Rp130
F3.0093510909606103
sg1
(g2
(S'S5'
p131
I0
I1
tp132
Rp133
(I3
S'|'
p134
NNNI5
I1
I0
tp135
bS'SRH1b'
p136
tp137
Rp138
F1.6419795613732968
sg1
(g2
(S'S5'
p139
I0
I1
tp140
Rp141
(I3
S'|'
p142
NNNI5
I1
I0
tp143
bS'SRH1a'
p144
tp145
Rp146
F2.064626073277842
sg1
(g2
(S'S5'
p147
I0
I1
tp148
Rp149
(I3
S'|'
p150
NNNI5
I1
I0
tp151
bS'SRV1b'
p152
tp153
Rp154
F1.6610925306577595
sg1
(g2
(S'S5'
p155
I0
I1
tp156
Rp157
(I3
S'|'
p158
NNNI5
I1
I0
tp159
bS'SRV1c'
p160
tp161
Rp162
F2.1929824561403577
sg1
(g2
(S'S5'
p163
I0
I1
tp164
Rp165
(I3
S'|'
p166
NNNI5
I1
I0
tp167
bS'SRL1a'
p168
tp169
Rp170
F2.8369405880831144
s.