(dp0
S'CR2'
p1
F6.593124679322726
sS'SRL1c'
p2
F4.541895066562251
sS'SRL1b'
p3
F0.1281640499839809
sS'CR1b'
p4
F10.486645444033638
sS'CR1c'
p5
F12.585911750427957
sS'SRH1c'
p6
F3.646408839779003
sS'SRH2'
p7
F4.022015241320909
sS'CRTT2'
p8
F0.39534372940916995
sS'SR2'
p9
F4.142253713039934
sS'SRL2'
p10
F4.209541627689428
sS'CR1a'
p11
F11.728124591625743
sS'SRV2'
p12
F4.225352112676051
sS'SR1a'
p13
F3.3355059937087206
sS'SR1b'
p14
F1.4156526679607984
sS'SR1c'
p15
F3.9191213180229667
sS'SRV1a'
p16
F3.8411552346570343
sS'SRH1b'
p17
F1.9916434540389827
sS'SRH1a'
p18
F2.5510204081632737
sS'SRV1b'
p19
F1.9225772928033291
sS'SRV1c'
p20
F3.5635964912280604
sS'SRL1a'
p21
F3.6197601496314347
s.