(dp0
I775
(dp1
I705
F0.4718299294944603
sI745
F0.3951181759859879
sI715
F0.4430805996089507
sI755
F0.3846967373486331
sI725
F0.4229488087810758
sI695
F0.4955768765266378
sI765
F0.38479039009888977
sI735
F0.4058041170989096
ssI650
(dp2
I640
F0.36459933213765494
sI610
F0.3852932652247944
sI580
F0.4476222063475865
sI620
F0.37333790487619334
sI590
F0.42389085727489795
sI630
F0.3666243406915413
sI600
F0.40099051300396765
sI570
F0.477057501705389
ssI525
(dp3
I515
F0.33645537190816116
sI485
F0.3565831727681439
sI455
F0.4177327582573512
sI495
F0.3455463279596157
sI465
F0.39480694169924196
sI505
F0.33771861003520887
sI475
F0.3754083041835157
sI445
F0.44051329380231935
ssI400
(dp4
I320
F0.3898580467552122
sI390
F0.2898469280823051
sI360
F0.3112915857832008
sI330
F0.3671285727345034
sI370
F0.2989871235711661
sI340
F0.34700044283518716
sI380
F0.29289245388735197
sI350
F0.3272218807947958
ssI275
(dp5
I225
F0.25540825204005185
sI195
F0.30333885635991154
sI265
F0.22216239939984384
sI235
F0.24176774655560987
sI205
F0.28663943777931494
sI245
F0.2313181683374774
sI215
F0.2708565279558053
sI255
F0.22455953725796304
ssI800
(dp6
I770
F0.3972651260639497
sI740
F0.4500371491622032
sI780
F0.39064163839429433
sI750
F0.42463571854179083
sI720
F0.49873287229929986
sI790
F0.39160256618307315
sI760
F0.40640644361833955
sI730
F0.47148590539894886
ssI675
(dp7
I645
F0.3800384318869596
sI615
F0.42910935918000526
sI655
F0.3715604345904386
sI625
F0.4103280694074997
sI595
F0.48019919106794806
sI665
F0.37228808242248124
sI635
F0.3931667763285211
sI605
F0.4527236468471593
ssI550
(dp8
I480
F0.42399947120600023
sI520
F0.3510763969845341
sI490
F0.4021266707564181
sI530
F0.34446491632120374
sI500
F0.3805673877759405
sI470
F0.44956862173531065
sI540
F0.34216693996720393
sI510
F0.36388682918600934
ssI425
(dp9
I385
F0.32266040823432895
sI355
F0.3790980096605118
sI395
F0.31022327816148804
sI365
F0.3581746713540937
sI405
F0.30363716165203036
sI375
F0.338315819585144
sI345
F0.4028662904567284
sI415
F0.3007366045631771
ssI300
(dp10
I290
F0.23787044492350848
sI260
F0.25836137250742186
sI230
F0.3063852270368011
sI270
F0.2474483722031693
sI240
F0.28819099079230304
sI280
F0.24096366627029
sI250
F0.2730040513014088
sI220
F0.32410796934426683
ssI700
(dp11
I640
F0.435852608929532
sI680
F0.3797953361156304
sI650
F0.41252794094713313
sI620
F0.487165978251707
sI690
F0.3745434484857708
sI660
F0.3964503846055557
sI630
F0.45741139846743295
sI670
F0.3827259490599084
ssI575
(dp12
I545
F0.35828654314055774
sI515
F0.40719061435599846
sI555
F0.34927808768298013
sI525
F0.38658131964442216
sI495
F0.4553711611731915
sI565
F0.34856024523830503
sI535
F0.3705960339623706
sI505
F0.43122372723026625
ssI450
(dp13
I420
F0.3196418613076893
sI390
F0.3680547140454367
sI430
F0.3118846258922586
sI400
F0.3495672436328968
sI370
F0.4138201381988406
sI440
F0.3097860592124535
sI410
F0.33140586532428795
sI380
F0.3897592871884426
ssI325
(dp14
I295
F0.26180327066513126
sI265
F0.3053042652086031
sI305
F0.255222198736661
sI275
F0.28762069112022515
sI245
F0.3425279515973052
sI315
F0.25231495726650427
sI285
F0.2734813123653354
sI255
F0.3236801211850535
ssI725
(dp15
I705
F0.3830087843233614
sI675
F0.41727943252798394
sI645
F0.48811834319526626
sI715
F0.3762919591609742
sI685
F0.3989993080321499
sI655
F0.4639921149826161
sI695
F0.38519004334771423
sI665
F0.4356084809758931
ssI600
(dp16
I580
F0.3555855192760875
sI550
F0.393044467644834
sI520
F0.46186188013386065
sI590
F0.35330169332630224
sI560
F0.3768337746224796
sI530
F0.43848205653850186
sI570
F0.362020738033704
sI540
F0.4141162165380734
ssI475
(dp17
I455
F0.32243807866474
sI425
F0.3575926566734035
sI395
F0.4241843395233057
sI465
F0.3195217634971044
sI435
F0.3424225975712294
sI405
F0.39951143458129207
sI445
F0.32887700534759357
sI415
F0.3787537269427857
ssI350
(dp18
I320
F0.275790940805479
sI290
F0.32012916946990333
sI330
F0.26857268182988375
sI300
F0.3027842749083893
sI270
F0.3599162696901547
sI340
F0.2658397873207286
sI310
F0.286833668897134
sI280
F0.3392745922288761
ssI750
(dp19
I740
F0.3816732122049113
sI710
F0.40317395865056
sI680
F0.4644903075417551
sI720
F0.39196515952241145
sI690
F0.44077433017217565
sI730
F0.38637281990236655
sI700
F0.4203809932820025
sI670
F0.4923264907135875
ssI625
(dp20
I545
F0.4698752438952285
sI615
F0.3598333922747456
sI585
F0.3806694650737273
sI555
F0.44294622226442565
sI595
F0.36995381689758217
sI565
F0.4198445634950577
sI605
F0.3616498456777002
sI575
F0.3978148835291692
ssI500
(dp21
I480
F0.3305308575195659
sI450
F0.36664608769233425
sI420
F0.4320148760515733
sI490
F0.32716837145057126
sI460
F0.3495388035268795
sI430
F0.40922362426289954
sI470
F0.33711153911632646
sI440
F0.38561844405594403
ssI375
(dp22
I355
F0.28073802121232166
sI325
F0.31540955295329565
sI295
F0.3756171270364765
sI365
F0.2780637971150941
sI335
F0.2994413509437105
sI305
F0.3539515898044818
sI345
F0.28753740457941596
sI315
F0.3342489871090092
ssI250
(dp23
I230
F0.20724397193226182
sI200
F0.23663784394235696
sI170
F0.27799549456143524
sI240
F0.20503258358538215
sI210
F0.22333014672456625
sI180
F0.26357789071699333
sI220
F0.2136576734945796
sI190
F0.2496621487064394
ss.