(dp0
I160
(dp1
I800
F0.07365152741852668
sI400
F0.075252366863241
sI1000
F0.07392310095921129
sI300
F0.08001198057838249
sI1200
F0.07408110526028529
sI500
F0.07376119741467287
sI600
F0.07346872754211281
ssI100
(dp2
I800
F0.04647870536624002
sI400
F0.04570826734165776
sI1000
F0.04678294418179795
sI300
F0.046809018813295224
sI1200
F0.046196081341056884
sI500
F0.046012329694964424
sI600
F0.04596263912170223
ssI200
(dp3
I800
F0.08859116336796916
sI400
F0.09231714233151034
sI1000
F0.08841583042056601
sI300
F0.10342996785314268
sI1200
F0.08865246230250341
sI500
F0.08925204511248684
sI600
F0.08867661508526178
ssI140
(dp4
I800
F0.06570164172022198
sI1200
F0.0656172332866459
sI1000
F0.06553748428355265
sI300
F0.0693758994429233
sI400
F0.06622343672379413
sI500
F0.06558206095768486
sI600
F0.06530626042450145
ssI240
(dp5
I800
F0.10185125314093493
sI1200
F0.10132131370648315
sI1000
F0.10159273824870876
sI300
F0.13040323369447773
sI400
F0.10924870984981477
sI500
F0.10353183497909978
sI600
F0.10188168245942418
ssI180
(dp6
I800
F0.08186746678599986
sI1200
F0.08126802553804123
sI1000
F0.08170132493802298
sI300
F0.09138196587427307
sI400
F0.08385688241340246
sI500
F0.08222929335354236
sI600
F0.08122250476036985
ssI120
(dp7
I800
F0.05646517640596646
sI400
F0.056636120830085485
sI1000
F0.056739341058836094
sI300
F0.05814615537905315
sI1200
F0.05672792030951401
sI500
F0.056222371125211924
sI600
F0.05619537871424743
ssI220
(dp8
I800
F0.0953831964590679
sI1200
F0.0955649007965734
sI1000
F0.0950592292753621
sI300
F0.11592564855246092
sI400
F0.10063282116268019
sI500
F0.09693689721851703
sI600
F0.09542702458554242
ss.