(dp0
I775
(dp1
I705
F0.4612705314559548
sI745
F0.3943743889913252
sI715
F0.44198887439049517
sI755
F0.387429392286716
sI725
F0.4212245199773237
sI695
F0.48170245154003855
sI765
F0.38828848008215094
sI735
F0.4039455582417289
ssI650
(dp2
I640
F0.3609374458299146
sI610
F0.385464939487928
sI580
F0.4397600262984878
sI620
F0.3744042269248577
sI590
F0.4220435794372752
sI630
F0.36887368018190414
sI600
F0.4006169991927113
sI570
F0.4648645940326177
ssI525
(dp3
I515
F0.3347137806379851
sI485
F0.3569812427315168
sI455
F0.409314875645237
sI495
F0.34480736292811015
sI465
F0.3900155369776669
sI505
F0.3389125980449734
sI475
F0.36997327835809624
sI445
F0.42849123270481787
ssI400
(dp4
I320
F0.37764523821166507
sI390
F0.2900922607213465
sI360
F0.309712857107515
sI330
F0.36073244502109814
sI370
F0.29885751953779066
sI340
F0.3426360509533075
sI380
F0.292454371081955
sI350
F0.3248782811216109
ssI275
(dp5
I225
F0.25331881940800205
sI195
F0.29195684005246914
sI265
F0.22171986980192962
sI235
F0.24056623455472434
sI205
F0.28069679465832287
sI245
F0.2296671462412199
sI215
F0.2672637946872893
sI255
F0.22458700322998335
ssI800
(dp6
I770
F0.39791769716126385
sI740
F0.44265781494733514
sI780
F0.38901370040906436
sI750
F0.4281833401775279
sI720
F0.48603625673689366
sI790
F0.38870423559808853
sI760
F0.4062084846337791
sI730
F0.4666464489896778
ssI675
(dp7
I645
F0.3790626069107082
sI615
F0.4236626809314034
sI655
F0.3699949850872331
sI625
F0.4056432624387231
sI595
F0.46704410203622093
sI665
F0.3682285336700138
sI635
F0.3889537750785123
sI605
F0.44813841382145214
ssI550
(dp8
I480
F0.41908490966437256
sI520
F0.3515523947204705
sI490
F0.39731888563738427
sI530
F0.34370096750334544
sI500
F0.3776071744004348
sI470
F0.4367946208187931
sI540
F0.34097436142526316
sI510
F0.36158199839075417
ssI425
(dp9
I385
F0.32071612261799254
sI355
F0.3719041893078028
sI395
F0.30900575443597
sI365
F0.35439130043522366
sI405
F0.30353848407461925
sI375
F0.33577467090980606
sI345
F0.39108821782356434
sI415
F0.300322099051336
ssI300
(dp10
I290
F0.23820911550296348
sI260
F0.25712538271602325
sI230
F0.30066532740547824
sI270
F0.24668162925760423
sI240
F0.28579540819848026
sI280
F0.24088973741230663
sI250
F0.2704276184837236
sI220
F0.3133690493788772
ssI700
(dp11
I640
F0.43153956834532375
sI680
F0.3762166790485664
sI650
F0.4075872121751161
sI620
F0.4711690980987914
sI690
F0.3742113777298463
sI660
F0.3937634806187219
sI630
F0.4520252724011458
sI670
F0.38023748146763015
ssI575
(dp12
I545
F0.35672302674083295
sI515
F0.40450326149620736
sI555
F0.35040558707589947
sI525
F0.38517443489370284
sI495
F0.4430943514244511
sI565
F0.3479355431954786
sI535
F0.3704063470317071
sI505
F0.4252577319587629
ssI450
(dp13
I420
F0.3189628153359859
sI390
F0.363654921464698
sI430
F0.3136278169318543
sI400
F0.3452962394792487
sI370
F0.402219519610824
sI440
F0.3101984925833524
sI410
F0.33013356405427136
sI380
F0.38339017590535357
ssI325
(dp14
I295
F0.26127621290414843
sI265
F0.3019573457953128
sI305
F0.25537118888070964
sI275
F0.28557953696392896
sI245
F0.33232526538410456
sI315
F0.2528521357235955
sI285
F0.2718771940687598
sI255
F0.31802977871471566
ssI725
(dp15
I705
F0.37865519342065185
sI675
F0.41206572485296794
sI645
F0.47733157333604104
sI715
F0.37556171418729545
sI685
F0.3979083736392301
sI655
F0.4551634311232401
sI695
F0.38747621518768377
sI665
F0.43296533237533336
ssI600
(dp16
I580
F0.35756611998512644
sI550
F0.38888852848255234
sI520
F0.4497988113256303
sI590
F0.355096816688248
sI560
F0.3738599578234765
sI530
F0.42963946092100896
sI570
F0.3658986653228496
sI540
F0.4094133099824869
ssI475
(dp17
I455
F0.32150153066942455
sI425
F0.3547586808045401
sI395
F0.41252500444849427
sI465
F0.3197309808008532
sI435
F0.33859990323223316
sI405
F0.3930314632544672
sI445
F0.32841889428033855
sI415
F0.37357692375299556
ssI350
(dp18
I320
F0.27544099350517287
sI290
F0.31670362418185155
sI330
F0.2689296437606924
sI300
F0.29993628596345895
sI270
F0.3492001950025684
sI340
F0.2668651374602808
sI310
F0.28623857563182403
sI280
F0.33369708531179365
ssI750
(dp19
I740
F0.38094262594928374
sI710
F0.40158184233725275
sI680
F0.457506288520916
sI720
F0.3899972855591748
sI690
F0.43532335138579165
sI730
F0.38379819524200165
sI700
F0.4167396134940408
sI670
F0.47734830335752854
ssI625
(dp20
I545
F0.4543686456691462
sI615
F0.35879644946921646
sI585
F0.3801855231143552
sI555
F0.4377731183006408
sI595
F0.3689570189274448
sI565
F0.4133437901579862
sI605
F0.3622672154445285
sI575
F0.39837226411624055
ssI500
(dp21
I480
F0.33067920504618387
sI450
F0.36434519912241403
sI420
F0.4214475221209642
sI490
F0.32860696100563286
sI460
F0.34845935905438363
sI430
F0.40238972347143814
sI470
F0.3360171099886128
sI440
F0.38131210200410537
ssI375
(dp22
I355
F0.2811803186317457
sI325
F0.3132050252441579
sI295
F0.36469828125838355
sI365
F0.27831393721779346
sI335
F0.2984905770787481
sI305
F0.34814383871142945
sI345
F0.2870759020561277
sI315
F0.330146736123037
ssI250
(dp23
I230
F0.20663395375358942
sI200
F0.234065155073386
sI170
F0.26741680706519627
sI240
F0.20421341828942546
sI210
F0.22276238212489263
sI180
F0.2590546629674035
sI220
F0.2124780834214191
sI190
F0.24704495815698013
ss.