(dp0
(I670
I-1
tp1
(dp2
(I0
F0.8
tp3
(dp4
S'c'
p5
F0.12731647950434252
sS'b'
p6
F0.4522905438510534
sS'other'
p7
F0.010607880560939123
ss(F1.6
F2.4
tp8
(dp9
g5
F0.06681896059394632
sg6
F0.3853028798411122
sg7
F0.003239452723045848
ss(F0.8
F1.6
tp10
(dp11
g5
F0.10478216720661476
sg6
F0.4269377382465057
sg7
F0.006223810415971705
sss(I210
I260
tp12
(dp13
(I0
F0.8
tp14
(dp15
g5
F0.1413352512164698
sg6
F0.4183050590730082
sg7
F0.006405483759603026
ss(F1.6
F2.4
tp16
(dp17
g5
F0.113653352400143
sg6
F0.4079764497136866
sg7
F0.008684781282977245
ss(F0.8
F1.6
tp18
(dp19
g5
F0.13234807628689907
sg6
F0.41983352392096374
sg7
F0.005258246711502554
sss(I30
I40
tp20
(dp21
(I0
F0.8
tp22
(dp23
g5
F0.18123277965834841
sg6
F0.4982455653029661
sg7
F0.01565772095277536
ss(F1.6
F2.4
tp24
(dp25
g5
F0.13692557583414172
sg6
F0.4374458632540725
sg7
F0.01615032309289986
ss(F0.8
F1.6
tp26
(dp27
g5
F0.16449428930440163
sg6
F0.47516004706537474
sg7
F0.014245162126181283
sss(I500
I670
tp28
(dp29
(I0
F0.8
tp30
(dp31
g5
F0.13643516141321452
sg6
F0.44534163504880503
sg7
F0.009443574583440443
ss(F1.6
F2.4
tp32
(dp33
g5
F0.086003952229573
sg6
F0.3673530289465831
sg7
F0.004381047656829433
ss(F0.8
F1.6
tp34
(dp35
g5
F0.11614857483364784
sg6
F0.4271454728013703
sg7
F0.005954197696658935
sss(I80
I100
tp36
(dp37
(I0
F0.8
tp38
(dp39
g5
F0.1519469034453804
sg6
F0.42443913026231533
sg7
F0.0075003495390296125
ss(F1.6
F2.4
tp40
(dp41
g5
F0.14072973314784368
sg6
F0.44282290917804934
sg7
F0.011451133433187217
ss(F0.8
F1.6
tp42
(dp43
g5
F0.1474313392800569
sg6
F0.42228967602489753
sg7
F0.00730679387955814
sss(I20
I30
tp44
(dp45
(I0
F0.8
tp46
(dp47
g5
F0.14843516451153058
sg6
F0.44616663553918207
sg7
F0.013942560023778127
ss(F1.6
F2.4
tp48
(dp49
g5
F0.10221445145691017
sg6
F0.35891595049911224
sg7
F0.012114404279002889
ss(F0.8
F1.6
tp50
(dp51
g5
F0.1312682073640399
sg6
F0.41953275455905387
sg7
F0.012468592942902035
sss(I260
I320
tp52
(dp53
(I0
F0.8
tp54
(dp55
g5
F0.14343443457636731
sg6
F0.42412313506278787
sg7
F0.00689290451272199
ss(F1.6
F2.4
tp56
(dp57
g5
F0.11525588635921385
sg6
F0.4012128949888286
sg7
F0.009046045212182087
ss(F0.8
F1.6
tp58
(dp59
g5
F0.13224602257577103
sg6
F0.427131408387344
sg7
F0.005805491182469986
sss(I70
I80
tp60
(dp61
(I0
F0.8
tp62
(dp63
g5
F0.15560118214341268
sg6
F0.43112396262687797
sg7
F0.00841700403821581
ss(F1.6
F2.4
tp64
(dp65
g5
F0.13378761791594926
sg6
F0.4323472603436007
sg7
F0.01050461346361861
ss(F0.8
F1.6
tp66
(dp67
g5
F0.15018704948447337
sg6
F0.4203764173079763
sg7
F0.007633162203103919
sss(I320
I400
tp68
(dp69
(I0
F0.8
tp70
(dp71
g5
F0.14579031071233592
sg6
F0.4270044740674653
sg7
F0.007539803294501318
ss(F1.6
F2.4
tp72
(dp73
g5
F0.11881901104176669
sg6
F0.39149905123339657
sg7
F0.009615846638489911
ss(F0.8
F1.6
tp74
(dp75
g5
F0.13487816112122475
sg6
F0.42836491415354505
sg7
F0.006327354409687858
sss(I400
I500
tp76
(dp77
(I0
F0.8
tp78
(dp79
g5
F0.1378099123675253
sg6
F0.43709178411825367
sg7
F0.007836576409622842
ss(F1.6
F2.4
tp80
(dp81
g5
F0.09094327207783053
sg6
F0.36805251641137854
sg7
F0.004999332771342366
ss(F0.8
F1.6
tp82
(dp83
g5
F0.12000878319032497
sg6
F0.41840972871842846
sg7
F0.005710063023399523
sss(I40
I50
tp84
(dp85
(I0
F0.8
tp86
(dp87
g5
F0.16272220308609947
sg6
F0.4654215081094166
sg7
F0.010259003936907724
ss(F1.6
F2.4
tp88
(dp89
g5
F0.13992610573662229
sg6
F0.44097491006784756
sg7
F0.01484330603742798
ss(F0.8
F1.6
tp90
(dp91
g5
F0.15334455651570764
sg6
F0.45295031102182665
sg7
F0.010344496750754746
sss(I100
I120
tp92
(dp93
(I0
F0.8
tp94
(dp95
g5
F0.14448450076519667
sg6
F0.4197035060218592
sg7
F0.006534896544480622
ss(F1.6
F2.4
tp96
(dp97
g5
F0.13231397771170844
sg6
F0.4423164295949394
sg7
F0.009340259661122811
ss(F0.8
F1.6
tp98
(dp99
g5
F0.14207287121846918
sg6
F0.42396070079994275
sg7
F0.006049136517716353
sss(I160
I210
tp100
(dp101
(I0
F0.8
tp102
(dp103
g5
F0.1369230696095722
sg6
F0.42108921188138904
sg7
F0.00553423414498272
ss(F1.6
F2.4
tp104
(dp105
g5
F0.11375397552692577
sg6
F0.42985739474742474
sg7
F0.007593337976132862
ss(F0.8
F1.6
tp106
(dp107
g5
F0.13021218164579723
sg6
F0.42470738010184694
sg7
F0.0050092691200252434
sss(I120
I160
tp108
(dp109
(I0
F0.8
tp110
(dp111
g5
F0.14372130877699946
sg6
F0.4282980979835491
sg7
F0.006526637882594759
ss(F1.6
F2.4
tp112
(dp113
g5
F0.13673095571597887
sg6
F0.4602657702610431
sg7
F0.010777001522182302
ss(F0.8
F1.6
tp114
(dp115
g5
F0.14698887005426997
sg6
F0.43520831031053153
sg7
F0.006213700360428576
sss(I60
I70
tp116
(dp117
(I0
F0.8
tp118
(dp119
g5
F0.1589864268222742
sg6
F0.4338849379742836
sg7
F0.008340853347009644
ss(F1.6
F2.4
tp120
(dp121
g5
F0.13664972383800944
sg6
F0.43079666179638937
sg7
F0.01163429341979667
ss(F0.8
F1.6
tp122
(dp123
g5
F0.14867179843952213
sg6
F0.42528380148450007
sg7
F0.007832849755408882
sss(I50
I60
tp124
(dp125
(I0
F0.8
tp126
(dp127
g5
F0.1641617648466898
sg6
F0.452705149640347
sg7
F0.009981506182863255
ss(F1.6
F2.4
tp128
(dp129
g5
F0.13517349320882852
sg6
F0.4299775513728199
sg7
F0.01170420063381971
ss(F0.8
F1.6
tp130
(dp131
g5
F0.15243158352698988
sg6
F0.43952379088889176
sg7
F0.009080390335420548
sss.