(dp0
(I670
I-1
tp1
(dp2
(I0
F0.8
tp3
(dp4
S'c'
p5
F0.12524633238449748
sS'b'
p6
F0.46450635272176244
sS'other'
p7
F0.010467520220521562
ss(F1.6
F2.4
tp8
(dp9
g5
F0.068
sg6
F0.41995841995842
sg7
F0.002375923970432946
ss(F0.8
F1.6
tp10
(dp11
g5
F0.10030792199309509
sg6
F0.4364514489069649
sg7
F0.00570841111381652
sss(I210
I260
tp12
(dp13
(I0
F0.8
tp14
(dp15
g5
F0.14079059333178617
sg6
F0.41939329912466045
sg7
F0.006379969945731703
ss(F1.6
F2.4
tp16
(dp17
g5
F0.11356628982528263
sg6
F0.40406465034405503
sg7
F0.00850741986803328
ss(F0.8
F1.6
tp18
(dp19
g5
F0.12981812114133157
sg6
F0.4242224217141047
sg7
F0.0052278503511803435
sss(I30
I40
tp20
(dp21
(I0
F0.8
tp22
(dp23
g5
F0.1816394809174064
sg6
F0.48883322563026305
sg7
F0.015832368311561842
ss(F1.6
F2.4
tp24
(dp25
g5
F0.13667563254054174
sg6
F0.43256773905646434
sg7
F0.01645585777237502
ss(F0.8
F1.6
tp26
(dp27
g5
F0.16510095603706026
sg6
F0.4685742235265346
sg7
F0.014227337128493152
sss(I500
I670
tp28
(dp29
(I0
F0.8
tp30
(dp31
g5
F0.13378736780066142
sg6
F0.4517976455615654
sg7
F0.009405689520033197
ss(F1.6
F2.4
tp32
(dp33
g5
F0.08547008547008547
sg6
F0.3866739486619334
sg7
F0.003862093887276546
ss(F0.8
F1.6
tp34
(dp35
g5
F0.1161012437690558
sg6
F0.42679200940070505
sg7
F0.005862364922178109
sss(I80
I100
tp36
(dp37
(I0
F0.8
tp38
(dp39
g5
F0.15101654182819654
sg6
F0.41988745075970735
sg7
F0.007566882278560832
ss(F1.6
F2.4
tp40
(dp41
g5
F0.13706371879269655
sg6
F0.44793638773191974
sg7
F0.011345223672858342
ss(F0.8
F1.6
tp42
(dp43
g5
F0.15006156792994937
sg6
F0.4198582391189737
sg7
F0.007331633127341657
sss(I20
I30
tp44
(dp45
(I0
F0.8
tp46
(dp47
g5
F0.1477848139878229
sg6
F0.43711509495259754
sg7
F0.014077294879587143
ss(F1.6
F2.4
tp48
(dp49
g5
F0.10119645863607557
sg6
F0.35628916897700535
sg7
F0.012226263101529624
ss(F0.8
F1.6
tp50
(dp51
g5
F0.13086899769489266
sg6
F0.4121543434020989
sg7
F0.012475238715068759
sss(I260
I320
tp52
(dp53
(I0
F0.8
tp54
(dp55
g5
F0.14404785996155015
sg6
F0.4247604297744652
sg7
F0.006760275246419937
ss(F1.6
F2.4
tp56
(dp57
g5
F0.11493629709948495
sg6
F0.39873617693522906
sg7
F0.00905138410254281
ss(F0.8
F1.6
tp58
(dp59
g5
F0.13327560827777296
sg6
F0.42477934833101066
sg7
F0.0056733828207847295
sss(I70
I80
tp60
(dp61
(I0
F0.8
tp62
(dp63
g5
F0.15698656289008003
sg6
F0.42520106816230396
sg7
F0.00817340428214763
ss(F1.6
F2.4
tp64
(dp65
g5
F0.13584311480103065
sg6
F0.4303695227838729
sg7
F0.010360034976998821
ss(F0.8
F1.6
tp66
(dp67
g5
F0.14716665338327886
sg6
F0.4191700569568755
sg7
F0.0074815545843319705
sss(I320
I400
tp68
(dp69
(I0
F0.8
tp70
(dp71
g5
F0.1430030801615924
sg6
F0.433645488410596
sg7
F0.007347729314618257
ss(F1.6
F2.4
tp72
(dp73
g5
F0.1211230648123852
sg6
F0.4036768113703074
sg7
F0.009666659102770656
ss(F0.8
F1.6
tp74
(dp75
g5
F0.1326251962070226
sg6
F0.42561363235034433
sg7
F0.006259114180752311
sss(I400
I500
tp76
(dp77
(I0
F0.8
tp78
(dp79
g5
F0.1360264776301582
sg6
F0.44004490694762294
sg7
F0.007704769989954711
ss(F1.6
F2.4
tp80
(dp81
g5
F0.09115331171838814
sg6
F0.377667348728442
sg7
F0.005003821917896211
ss(F0.8
F1.6
tp82
(dp83
g5
F0.11843377914151353
sg6
F0.4277312159976474
sg7
F0.005819231311732134
sss(I40
I50
tp84
(dp85
(I0
F0.8
tp86
(dp87
g5
F0.16043709194106376
sg6
F0.4571561146628171
sg7
F0.010377715428498425
ss(F1.6
F2.4
tp88
(dp89
g5
F0.1441173363383456
sg6
F0.4355734990587221
sg7
F0.015262841941936759
ss(F0.8
F1.6
tp90
(dp91
g5
F0.15304036791006642
sg6
F0.4466234835200229
sg7
F0.010297969029176528
sss(I100
I120
tp92
(dp93
(I0
F0.8
tp94
(dp95
g5
F0.14434976287898696
sg6
F0.4188118472277007
sg7
F0.0065895020188425305
ss(F1.6
F2.4
tp96
(dp97
g5
F0.12721857769549644
sg6
F0.45588742498447954
sg7
F0.00954844884439094
ss(F0.8
F1.6
tp98
(dp99
g5
F0.14373019465821638
sg6
F0.4202686811816271
sg7
F0.006284545102136694
sss(I160
I210
tp100
(dp101
(I0
F0.8
tp102
(dp103
g5
F0.13631527865915113
sg6
F0.4199985967303818
sg7
F0.005869934461348022
ss(F1.6
F2.4
tp104
(dp105
g5
F0.1140485380426162
sg6
F0.4276740955487105
sg7
F0.007529836189357552
ss(F0.8
F1.6
tp106
(dp107
g5
F0.13291709577754893
sg6
F0.42759223042892136
sg7
F0.004999190545572284
sss(I120
I160
tp108
(dp109
(I0
F0.8
tp110
(dp111
g5
F0.1424090506956918
sg6
F0.42532744155150254
sg7
F0.00646718534104656
ss(F1.6
F2.4
tp112
(dp113
g5
F0.13482727417895354
sg6
F0.461352148272957
sg7
F0.011139495765731266
ss(F0.8
F1.6
tp114
(dp115
g5
F0.1454180188533457
sg6
F0.4336059218514563
sg7
F0.0064450831814894674
sss(I60
I70
tp116
(dp117
(I0
F0.8
tp118
(dp119
g5
F0.1560529521352823
sg6
F0.4295333206216036
sg7
F0.008449803159089464
ss(F1.6
F2.4
tp120
(dp121
g5
F0.13599327706529285
sg6
F0.42641323130091335
sg7
F0.012168896078000202
ss(F0.8
F1.6
tp122
(dp123
g5
F0.14705361621765176
sg6
F0.42086685076239644
sg7
F0.00782673774961243
sss(I50
I60
tp124
(dp125
(I0
F0.8
tp126
(dp127
g5
F0.16225445659325166
sg6
F0.44725132768767045
sg7
F0.009830402275979441
ss(F1.6
F2.4
tp128
(dp129
g5
F0.1355340008343763
sg6
F0.4324855252274607
sg7
F0.011924030913540417
ss(F0.8
F1.6
tp130
(dp131
g5
F0.15056853810459428
sg6
F0.43371512176540356
sg7
F0.009245455593005502
sss.