(dp0
(I670
I-1
tp1
(dp2
(I0
F0.8
tp3
(dp4
S'c'
p5
F0.14861946698184467
sS'b'
p6
F0.4880581706289608
sS'other'
p7
F0.032969277933944705
ss(F1.6
F2.4
tp8
(dp9
g5
F0.12229679343773303
sg6
F0.3983760466886577
sg7
F0.03021234765512862
ss(F0.8
F1.6
tp10
(dp11
g5
F0.15056767626436987
sg6
F0.47488006500711016
sg7
F0.037013335875945
sss(I210
I260
tp12
(dp13
(I0
F0.8
tp14
(dp15
g5
F0.16929433060203672
sg6
F0.6721527741809684
sg7
F0.017988774687910877
ss(F1.6
F2.4
tp16
(dp17
g5
F0.15405064132385193
sg6
F0.5345173842098657
sg7
F0.029711089308986544
ss(F0.8
F1.6
tp18
(dp19
g5
F0.16268734553204997
sg6
F0.6225909000596066
sg7
F0.019731363958257135
sss(I80
I100
tp20
(dp21
(I0
F0.8
tp22
(dp23
g5
F0.19405085680594913
sg6
F0.7296101589262959
sg7
F0.021572179768742077
ss(F1.6
F2.4
tp24
(dp25
g5
F0.16404868407365025
sg6
F0.6181150878696957
sg7
F0.024997353437999106
ss(F0.8
F1.6
tp26
(dp27
g5
F0.1834151157051189
sg6
F0.6938164635344548
sg7
F0.022160456912643785
sss(I500
I670
tp28
(dp29
(I0
F0.8
tp30
(dp31
g5
F0.14278660561989406
sg6
F0.5402458566918487
sg7
F0.02221099340908772
ss(F1.6
F2.4
tp32
(dp33
g5
F0.13240867060785205
sg6
F0.4300678490655874
sg7
F0.03171921287691909
ss(F0.8
F1.6
tp34
(dp35
g5
F0.14797371719396862
sg6
F0.5036040233507825
sg7
F0.028747345568433915
sss(I400
I500
tp36
(dp37
(I0
F0.8
tp38
(dp39
g5
F0.1491351366856946
sg6
F0.5758272991811599
sg7
F0.018770559392816293
ss(F1.6
F2.4
tp40
(dp41
g5
F0.14869267396207503
sg6
F0.46376537369914855
sg7
F0.03498693016976417
ss(F0.8
F1.6
tp42
(dp43
g5
F0.1537350093917064
sg6
F0.5448616650362456
sg7
F0.02670885939238155
sss(I30
I40
tp44
(dp45
(I0
F0.8
tp46
(dp47
g5
F0.20248612231342222
sg6
F0.6801536076000735
sg7
F0.03127865860613665
ss(F1.6
F2.4
tp48
(dp49
g5
F0.15083054926056585
sg6
F0.5582977216982324
sg7
F0.028719820325659742
ss(F0.8
F1.6
tp50
(dp51
g5
F0.1801125942531078
sg6
F0.6338311556103812
sg7
F0.029442738736460694
sss(I260
I320
tp52
(dp53
(I0
F0.8
tp54
(dp55
g5
F0.16671452729651257
sg6
F0.6503994880702075
sg7
F0.01767744564953696
ss(F1.6
F2.4
tp56
(dp57
g5
F0.15264423076923078
sg6
F0.5164769322947873
sg7
F0.034433736264599384
ss(F0.8
F1.6
tp58
(dp59
g5
F0.16159474074859506
sg6
F0.6010416012065607
sg7
F0.021904908132453042
sss(I70
I80
tp60
(dp61
(I0
F0.8
tp62
(dp63
g5
F0.19049694152584773
sg6
F0.7284881090049776
sg7
F0.02163370010199856
ss(F1.6
F2.4
tp64
(dp65
g5
F0.1571310799670239
sg6
F0.6099094511722641
sg7
F0.02316320767531474
ss(F0.8
F1.6
tp66
(dp67
g5
F0.17705573486198758
sg6
F0.6892426717377348
sg7
F0.02104913374278119
sss(I320
I400
tp68
(dp69
(I0
F0.8
tp70
(dp71
g5
F0.1589760338418949
sg6
F0.6214413676401835
sg7
F0.018206419131529265
ss(F1.6
F2.4
tp72
(dp73
g5
F0.16539013882240305
sg6
F0.5004793863854267
sg7
F0.04218484915541786
ss(F0.8
F1.6
tp74
(dp75
g5
F0.16281161655101517
sg6
F0.5786301112623821
sg7
F0.026049353328572562
sss(I50
I60
tp76
(dp77
(I0
F0.8
tp78
(dp79
g5
F0.19226380648105887
sg6
F0.7176675712409447
sg7
F0.023063500344887553
ss(F1.6
F2.4
tp80
(dp81
g5
F0.14562886909255623
sg6
F0.6026003862289405
sg7
F0.023297332732031856
ss(F0.8
F1.6
tp82
(dp83
g5
F0.17273726639794795
sg6
F0.6736908621352822
sg7
F0.022186802843488524
sss(I100
I120
tp84
(dp85
(I0
F0.8
tp86
(dp87
g5
F0.18456905035749435
sg6
F0.7228741364987412
sg7
F0.02005927628835773
ss(F1.6
F2.4
tp88
(dp89
g5
F0.15690909933713437
sg6
F0.6050544309808129
sg7
F0.023596679987703657
ss(F0.8
F1.6
tp90
(dp91
g5
F0.17712917779210016
sg6
F0.6811714069616224
sg7
F0.01982037287496123
sss(I160
I210
tp92
(dp93
(I0
F0.8
tp94
(dp95
g5
F0.17414270065539073
sg6
F0.6905743848018432
sg7
F0.01833729527302709
ss(F1.6
F2.4
tp96
(dp97
g5
F0.15033022787910597
sg6
F0.5556327242939061
sg7
F0.02700797879334557
ss(F0.8
F1.6
tp98
(dp99
g5
F0.1657335169037785
sg6
F0.6431958342430821
sg7
F0.018810461223020797
sss(I120
I160
tp100
(dp101
(I0
F0.8
tp102
(dp103
g5
F0.19196523130751308
sg6
F0.7215756228227337
sg7
F0.021169041322966414
ss(F1.6
F2.4
tp104
(dp105
g5
F0.16762810781634788
sg6
F0.6027263504945473
sg7
F0.029445356087955368
ss(F0.8
F1.6
tp106
(dp107
g5
F0.1851330620110811
sg6
F0.6802910803749916
sg7
F0.021910500529423376
sss(I60
I70
tp108
(dp109
(I0
F0.8
tp110
(dp111
g5
F0.18885208123289643
sg6
F0.7206807800884765
sg7
F0.021680306152487488
ss(F1.6
F2.4
tp112
(dp113
g5
F0.15787535671545613
sg6
F0.6159065136750659
sg7
F0.025639060510305147
ss(F0.8
F1.6
tp114
(dp115
g5
F0.1787961782107838
sg6
F0.6852389675766647
sg7
F0.02181769337537818
sss(I40
I50
tp116
(dp117
(I0
F0.8
tp118
(dp119
g5
F0.18367232210116818
sg6
F0.6933640149024765
sg7
F0.02248208946455461
ss(F1.6
F2.4
tp120
(dp121
g5
F0.1546989854808335
sg6
F0.5979990512743111
sg7
F0.02855020642241454
ss(F0.8
F1.6
tp122
(dp123
g5
F0.1737565445026178
sg6
F0.6539388606190458
sg7
F0.023661320571687253
sss.