(dp0
(I670
I-1
tp1
(dp2
(I0
F0.8
tp3
(dp4
S'c'
p5
F0.07472627100913593
sS'b'
p6
F0.4514665541253429
sS'other'
p7
F0.011635841804734618
ss(F1.6
F2.4
tp8
(dp9
g5
F0.052312357846853674
sg6
F0.375
sg7
F0.012013910844135315
ss(F0.8
F1.6
tp10
(dp11
g5
F0.07427716849451645
sg6
F0.4255199550309162
sg7
F0.014428584698269189
sss(I210
I260
tp12
(dp13
(I0
F0.8
tp14
(dp15
g5
F0.08100668501769563
sg6
F0.5542271562766866
sg7
F0.005402756508422665
ss(F1.6
F2.4
tp16
(dp17
g5
F0.06413010125805461
sg6
F0.4177372565271446
sg7
F0.009208230995547764
ss(F0.8
F1.6
tp18
(dp19
g5
F0.07397180642348496
sg6
F0.48660159716060336
sg7
F0.00570439781209215
sss(I80
I100
tp20
(dp21
(I0
F0.8
tp22
(dp23
g5
F0.08414356019685512
sg6
F0.6046613896218118
sg7
F0.004702107955547715
ss(F1.6
F2.4
tp24
(dp25
g5
F0.06615776081424936
sg6
F0.47903694479036946
sg7
F0.007772675086107922
ss(F0.8
F1.6
tp26
(dp27
g5
F0.08066651093981157
sg6
F0.5721892279336473
sg7
F0.005855708806006692
sss(I500
I670
tp28
(dp29
(I0
F0.8
tp30
(dp31
g5
F0.06875919882255072
sg6
F0.48315697505096594
sg7
F0.0070493971417198474
ss(F1.6
F2.4
tp32
(dp33
g5
F0.06480605487228004
sg6
F0.3530405405405405
sg7
F0.010254375339375966
ss(F0.8
F1.6
tp34
(dp35
g5
F0.07097503228583728
sg6
F0.4221114473918462
sg7
F0.009238322485539746
sss(I400
I500
tp36
(dp37
(I0
F0.8
tp38
(dp39
g5
F0.07086230876216967
sg6
F0.5002145462347136
sg7
F0.006649830874017272
ss(F1.6
F2.4
tp40
(dp41
g5
F0.06499261447562776
sg6
F0.39116094986807387
sg7
F0.012005720176926403
ss(F0.8
F1.6
tp42
(dp43
g5
F0.07815964523281596
sg6
F0.46110402623428676
sg7
F0.008884296218818326
sss(I30
I40
tp44
(dp45
(I0
F0.8
tp46
(dp47
g5
F0.08874600883523596
sg6
F0.5626880641925778
sg7
F0.006054300684399208
ss(F1.6
F2.4
tp48
(dp49
g5
F0.0610987506417936
sg6
F0.4171110033931168
sg7
F0.0080765009831268
ss(F0.8
F1.6
tp50
(dp51
g5
F0.07803982645455557
sg6
F0.49985843714609285
sg7
F0.006595868248568821
sss(I260
I320
tp52
(dp53
(I0
F0.8
tp54
(dp55
g5
F0.07935701585688885
sg6
F0.5276167947959787
sg7
F0.0061831543586488595
ss(F1.6
F2.4
tp56
(dp57
g5
F0.07359841936280563
sg6
F0.41658488714425906
sg7
F0.011022299696009864
ss(F0.8
F1.6
tp58
(dp59
g5
F0.07478974769723669
sg6
F0.5130527437400106
sg7
F0.007106701977702789
sss(I70
I80
tp60
(dp61
(I0
F0.8
tp62
(dp63
g5
F0.0782643551458062
sg6
F0.6077348066298343
sg7
F0.004591741942333383
ss(F1.6
F2.4
tp64
(dp65
g5
F0.0646521433591005
sg6
F0.4850498338870432
sg7
F0.006521897544268746
ss(F0.8
F1.6
tp66
(dp67
g5
F0.07229073733928103
sg6
F0.5753516409912927
sg7
F0.00506812711171963
sss(I320
I400
tp68
(dp69
(I0
F0.8
tp70
(dp71
g5
F0.08068138626861546
sg6
F0.5224749972524453
sg7
F0.00693487325319702
ss(F1.6
F2.4
tp72
(dp73
g5
F0.08276157804459691
sg6
F0.41804180418041803
sg7
F0.01367232803278266
ss(F0.8
F1.6
tp74
(dp75
g5
F0.07778345250255363
sg6
F0.4783564423402097
sg7
F0.008731125527635344
sss(I50
I60
tp76
(dp77
(I0
F0.8
tp78
(dp79
g5
F0.0834373852368711
sg6
F0.6067355666429081
sg7
F0.0049247444846985365
ss(F1.6
F2.4
tp80
(dp81
g5
F0.06332748444728027
sg6
F0.496
sg7
F0.006909167171552407
ss(F0.8
F1.6
tp82
(dp83
g5
F0.07266729500471253
sg6
F0.559375
sg7
F0.0053218449062341616
sss(I100
I120
tp84
(dp85
(I0
F0.8
tp86
(dp87
g5
F0.08535146762889459
sg6
F0.6053632904511687
sg7
F0.004516111347158071
ss(F1.6
F2.4
tp88
(dp89
g5
F0.06818956699624958
sg6
F0.4787344398340249
sg7
F0.007434517402224615
ss(F0.8
F1.6
tp90
(dp91
g5
F0.08177093001670689
sg6
F0.5692002971032434
sg7
F0.005242452749508253
sss(I160
I210
tp92
(dp93
(I0
F0.8
tp94
(dp95
g5
F0.07884833854018744
sg6
F0.5692540213753644
sg7
F0.004944133295434984
ss(F1.6
F2.4
tp96
(dp97
g5
F0.07019438444924406
sg6
F0.4131695667007847
sg7
F0.008042238648363252
ss(F0.8
F1.6
tp98
(dp99
g5
F0.07777193904361535
sg6
F0.5248834761689971
sg7
F0.005827765764542748
sss(I120
I160
tp100
(dp101
(I0
F0.8
tp102
(dp103
g5
F0.082073256149314
sg6
F0.5902335456475584
sg7
F0.004974054026143903
ss(F1.6
F2.4
tp104
(dp105
g5
F0.07325968036039901
sg6
F0.47530864197530864
sg7
F0.009377896516002399
ss(F0.8
F1.6
tp106
(dp107
g5
F0.08094481284594728
sg6
F0.5455538221528862
sg7
F0.006447036903728483
sss(I60
I70
tp108
(dp109
(I0
F0.8
tp110
(dp111
g5
F0.08040244217043598
sg6
F0.6039273031125966
sg7
F0.004352806414662085
ss(F1.6
F2.4
tp112
(dp113
g5
F0.06682721252257676
sg6
F0.4972067039106145
sg7
F0.0076301749575273465
ss(F0.8
F1.6
tp114
(dp115
g5
F0.0748681495069938
sg6
F0.5717476270240089
sg7
F0.0058339674602311846
sss(I40
I50
tp116
(dp117
(I0
F0.8
tp118
(dp119
g5
F0.07895815042434884
sg6
F0.5844755244755244
sg7
F0.004693720187928128
ss(F1.6
F2.4
tp120
(dp121
g5
F0.0680829916759846
sg6
F0.46484375
sg7
F0.007984751699979394
ss(F0.8
F1.6
tp122
(dp123
g5
F0.07628511655708309
sg6
F0.5238891987358245
sg7
F0.005899382749767848
sss.