(dp0
(I670
I-1
tp1
(dp2
(I0
F0.8
tp3
(dp4
S'c'
p5
F0.14787644787644788
sS'b'
p6
F0.5701763025706688
sS'other'
p7
F0.03334646426706487
ss(F1.6
F2.4
tp8
(dp9
g5
F0.09935483870967741
sg6
F0.49222797927461137
sg7
F0.03298874037005334
ss(F0.8
F1.6
tp10
(dp11
g5
F0.14851707609346915
sg6
F0.5404706490819757
sg7
F0.03861397975042072
sss(I210
I260
tp12
(dp13
(I0
F0.8
tp14
(dp15
g5
F0.16710309378333818
sg6
F0.6591330931324381
sg7
F0.014586849061393946
ss(F1.6
F2.4
tp16
(dp17
g5
F0.14220358368280595
sg6
F0.5300380228136882
sg7
F0.028583472494690253
ss(F0.8
F1.6
tp18
(dp19
g5
F0.15834835759201443
sg6
F0.6089077746301542
sg7
F0.017739467050774217
sss(I30
I40
tp20
(dp21
(I0
F0.8
tp22
(dp23
g5
F0.18391777509068924
sg6
F0.6604123486418676
sg7
F0.023800395868653394
ss(F1.6
F2.4
tp24
(dp25
g5
F0.1370721516953238
sg6
F0.5316978382317221
sg7
F0.029117053978259404
ss(F0.8
F1.6
tp26
(dp27
g5
F0.16970381397258869
sg6
F0.6097317351598174
sg7
F0.026132832508109955
sss(I500
I670
tp28
(dp29
(I0
F0.8
tp30
(dp31
g5
F0.14634869307464296
sg6
F0.604137476304294
sg7
F0.022028827848789775
ss(F1.6
F2.4
tp32
(dp33
g5
F0.1374228241386178
sg6
F0.48145454545454547
sg7
F0.03114690812100793
ss(F0.8
F1.6
tp34
(dp35
g5
F0.1441629905862022
sg6
F0.5464678415424009
sg7
F0.026224774717603757
sss(I80
I100
tp36
(dp37
(I0
F0.8
tp38
(dp39
g5
F0.18574340270328255
sg6
F0.7012316249503378
sg7
F0.017646854998787244
ss(F1.6
F2.4
tp40
(dp41
g5
F0.14938599822762375
sg6
F0.5895096921322691
sg7
F0.028423638681856347
ss(F0.8
F1.6
tp42
(dp43
g5
F0.1754471771939631
sg6
F0.6792843691148776
sg7
F0.021335312118628998
sss(I20
I30
tp44
(dp45
(I0
F0.8
tp46
(dp47
g5
F0.14517812692379753
sg6
F0.5436340969300296
sg7
F0.01828140859457328
ss(F1.6
F2.4
tp48
(dp49
g5
F0.09998518006224374
sg6
F0.4027401624980086
sg7
F0.021164121516902033
ss(F0.8
F1.6
tp50
(dp51
g5
F0.12791954663085137
sg6
F0.4882976595319064
sg7
F0.019673702617793207
sss(I260
I320
tp52
(dp53
(I0
F0.8
tp54
(dp55
g5
F0.1652232921863892
sg6
F0.6325092056812204
sg7
F0.016106534828395854
ss(F1.6
F2.4
tp56
(dp57
g5
F0.147831873128535
sg6
F0.5188379482523832
sg7
F0.03293013353977163
ss(F0.8
F1.6
tp58
(dp59
g5
F0.15839978375456143
sg6
F0.6163291341093925
sg7
F0.02063479827714129
sss(I70
I80
tp60
(dp61
(I0
F0.8
tp62
(dp63
g5
F0.1756018974313076
sg6
F0.7001145475372279
sg7
F0.017699749193837336
ss(F1.6
F2.4
tp64
(dp65
g5
F0.14758972180930133
sg6
F0.5942472460220318
sg7
F0.024638800769243414
ss(F0.8
F1.6
tp66
(dp67
g5
F0.16662727487591586
sg6
F0.6938461538461539
sg7
F0.020555168639936325
sss(I320
I400
tp68
(dp69
(I0
F0.8
tp70
(dp71
g5
F0.16293347111205664
sg6
F0.6332917346644907
sg7
F0.017818630560393046
ss(F1.6
F2.4
tp72
(dp73
g5
F0.16641201935319583
sg6
F0.5344827586206896
sg7
F0.04022758233832839
ss(F0.8
F1.6
tp74
(dp75
g5
F0.16334804937381747
sg6
F0.5912332838038633
sg7
F0.024370414236818596
sss(I400
I500
tp76
(dp77
(I0
F0.8
tp78
(dp79
g5
F0.14751712847874857
sg6
F0.6169876267559773
sg7
F0.019021434182471104
ss(F1.6
F2.4
tp80
(dp81
g5
F0.14120332626773194
sg6
F0.4873271889400922
sg7
F0.03418505276009418
ss(F0.8
F1.6
tp82
(dp83
g5
F0.1578466275377658
sg6
F0.58805875848997
sg7
F0.025212720287956673
sss(I40
I50
tp84
(dp85
(I0
F0.8
tp86
(dp87
g5
F0.16944943464017753
sg6
F0.6810688646636532
sg7
F0.017738862540029997
ss(F1.6
F2.4
tp88
(dp89
g5
F0.15596120935539076
sg6
F0.5686777920410783
sg7
F0.030479316218044936
ss(F0.8
F1.6
tp90
(dp91
g5
F0.1684909016281297
sg6
F0.6325226344754128
sg7
F0.022042768516272137
sss(I100
I120
tp92
(dp93
(I0
F0.8
tp94
(dp95
g5
F0.17447576379814572
sg6
F0.7069161920260374
sg7
F0.01552468775534026
ss(F1.6
F2.4
tp96
(dp97
g5
F0.1506203863672059
sg6
F0.5748069498069498
sg7
F0.025265579363643414
ss(F0.8
F1.6
tp98
(dp99
g5
F0.1651689132967216
sg6
F0.6592592592592592
sg7
F0.018860528924857622
sss(I160
I210
tp100
(dp101
(I0
F0.8
tp102
(dp103
g5
F0.1674195280664624
sg6
F0.6685566019604074
sg7
F0.01481708490424842
ss(F1.6
F2.4
tp104
(dp105
g5
F0.15265896463532938
sg6
F0.5416413373860183
sg7
F0.02644000910677696
ss(F0.8
F1.6
tp106
(dp107
g5
F0.1583677641947438
sg6
F0.625
sg7
F0.01762270641210686
sss(I120
I160
tp108
(dp109
(I0
F0.8
tp110
(dp111
g5
F0.18251342010441945
sg6
F0.6905667935109153
sg7
F0.016822983588646697
ss(F1.6
F2.4
tp112
(dp113
g5
F0.15342100247760626
sg6
F0.5731814198071867
sg7
F0.030062773818086707
ss(F0.8
F1.6
tp114
(dp115
g5
F0.1692614576238202
sg6
F0.6489451476793249
sg7
F0.02064349649221837
sss(I60
I70
tp116
(dp117
(I0
F0.8
tp118
(dp119
g5
F0.17566096423017108
sg6
F0.7013364323067983
sg7
F0.017374337391119044
ss(F1.6
F2.4
tp120
(dp121
g5
F0.15438659700954782
sg6
F0.6105100463678517
sg7
F0.027257834949109758
ss(F0.8
F1.6
tp122
(dp123
g5
F0.16937403000517331
sg6
F0.6813585688358829
sg7
F0.021778897028062374
sss(I50
I60
tp124
(dp125
(I0
F0.8
tp126
(dp127
g5
F0.17482238895159685
sg6
F0.7039430086149768
sg7
F0.018531513141107424
ss(F1.6
F2.4
tp128
(dp129
g5
F0.1495970695970696
sg6
F0.5979550102249489
sg7
F0.025440003376524713
ss(F0.8
F1.6
tp130
(dp131
g5
F0.16713639081048767
sg6
F0.6683617068317489
sg7
F0.021085656393999803
sss.